	.syntax unified
	.cpu cortex-m4
	.fpu softvfp
	.eabi_attribute 20, 1
	.eabi_attribute 21, 1
	.eabi_attribute 23, 3
	.eabi_attribute 24, 1
	.eabi_attribute 25, 1
	.eabi_attribute 26, 1
	.eabi_attribute 30, 6
	.eabi_attribute 34, 1
	.eabi_attribute 18, 4
	.thumb
	.file	"LED_01.c"
	.text
.Ltext0:
	.cfi_sections	.debug_frame
	.global	led_mask
	.section	.rodata
	.align	2
	.type	led_mask, %object
	.size	led_mask, 16
led_mask:
	.word	4096
	.word	8192
	.word	16384
	.word	32768
	.text
	.align	2
	.global	switch_init
	.thumb
	.thumb_func
	.type	switch_init, %function
switch_init:
.LFB0:
	.file 1 "LED_01.c"
	.loc 1 107 0
	.cfi_startproc
	@ args = 0, pretend = 0, frame = 0
	@ frame_needed = 1, uses_anonymous_args = 0
	@ link register save eliminated.
	push	{r7}
.LCFI0:
	.cfi_def_cfa_offset 4
	.cfi_offset 7, -4
	add	r7, sp, #0
.LCFI1:
	.cfi_def_cfa_register 7
	.loc 1 109 0
	mov	r3, #14336
	movt	r3, 16386
	mov	r2, #14336
	movt	r2, 16386
	ldr	r2, [r2, #48]
	orr	r2, r2, #1
	str	r2, [r3, #48]
	.loc 1 110 0
	mov	r3, #14336
	movt	r3, 16386
	mov	r2, #14336
	movt	r2, 16386
	ldr	r2, [r2, #48]
	orr	r2, r2, #2
	str	r2, [r3, #48]
	.loc 1 111 0
	mov	r3, #14336
	movt	r3, 16386
	mov	r2, #14336
	movt	r2, 16386
	ldr	r2, [r2, #48]
	orr	r2, r2, #4
	str	r2, [r3, #48]
	.loc 1 114 0
	mov	r3, #0
	movt	r3, 16386
	mov	r2, #0
	movt	r2, 16386
	ldr	r2, [r2, #0]
	bic	r2, r2, #12
	str	r2, [r3, #0]
	.loc 1 115 0
	mov	r3, #0
	movt	r3, 16386
	mov	r2, #0
	movt	r2, 16386
	ldr	r2, [r2, #0]
	orr	r2, r2, #4
	str	r2, [r3, #0]
	.loc 1 116 0
	mov	r3, #0
	movt	r3, 16386
	mov	r2, #0
	movt	r2, 16386
	ldr	r2, [r2, #4]
	bic	r2, r2, #2
	str	r2, [r3, #4]
	.loc 1 117 0
	mov	r3, #0
	movt	r3, 16386
	mov	r2, #0
	movt	r2, 16386
	ldr	r2, [r2, #8]
	bic	r2, r2, #12
	str	r2, [r3, #8]
	.loc 1 118 0
	mov	r3, #0
	movt	r3, 16386
	mov	r2, #0
	movt	r2, 16386
	ldr	r2, [r2, #8]
	orr	r2, r2, #8
	str	r2, [r3, #8]
	.loc 1 119 0
	mov	r3, #0
	movt	r3, 16386
	mov	r2, #0
	movt	r2, 16386
	ldr	r2, [r2, #12]
	bic	r2, r2, #12
	str	r2, [r3, #12]
	.loc 1 120 0
	mov	r3, #0
	movt	r3, 16386
	mov	r2, #0
	movt	r2, 16386
	ldr	r2, [r2, #12]
	orr	r2, r2, #4
	str	r2, [r3, #12]
	.loc 1 123 0
	mov	r3, #0
	movt	r3, 16386
	mov	r2, #0
	movt	r2, 16386
	ldr	r2, [r2, #0]
	bic	r2, r2, #-1073741824
	str	r2, [r3, #0]
	.loc 1 124 0
	mov	r3, #0
	movt	r3, 16386
	mov	r2, #0
	movt	r2, 16386
	ldr	r2, [r2, #8]
	bic	r2, r2, #-1073741824
	str	r2, [r3, #8]
	.loc 1 125 0
	mov	r3, #0
	movt	r3, 16386
	mov	r2, #0
	movt	r2, 16386
	ldr	r2, [r2, #8]
	orr	r2, r2, #-2147483648
	str	r2, [r3, #8]
	.loc 1 126 0
	mov	r3, #0
	movt	r3, 16386
	mov	r2, #0
	movt	r2, 16386
	ldr	r2, [r2, #12]
	bic	r2, r2, #-1073741824
	str	r2, [r3, #12]
	.loc 1 127 0
	mov	r3, #0
	movt	r3, 16386
	mov	r2, #0
	movt	r2, 16386
	ldr	r2, [r2, #12]
	orr	r2, r2, #1073741824
	str	r2, [r3, #12]
	.loc 1 130 0
	mov	r2, #1024
	movt	r2, 16386
	mov	r3, #1024
	movt	r3, 16386
	ldr	r1, [r3, #0]
	movw	r3, #62448
	movt	r3, 65343
	ands	r3, r3, r1
	str	r3, [r2, #0]
	.loc 1 131 0
	mov	r2, #1024
	movt	r2, 16386
	mov	r3, #1024
	movt	r3, 16386
	ldr	r1, [r3, #0]
	movw	r3, #1029
	movt	r3, 64
	orrs	r3, r3, r1
	str	r3, [r2, #0]
	.loc 1 132 0
	mov	r3, #1024
	movt	r3, 16386
	mov	r2, #1024
	movt	r2, 16386
	ldr	r2, [r2, #4]
	bic	r2, r2, #2080
	bic	r2, r2, #3
	str	r2, [r3, #4]
	.loc 1 133 0
	mov	r2, #1024
	movt	r2, 16386
	mov	r3, #1024
	movt	r3, 16386
	ldr	r1, [r3, #8]
	movw	r3, #62448
	movt	r3, 65343
	ands	r3, r3, r1
	str	r3, [r2, #8]
	.loc 1 134 0
	mov	r2, #1024
	movt	r2, 16386
	mov	r3, #1024
	movt	r3, 16386
	ldr	r1, [r3, #8]
	movw	r3, #2058
	movt	r3, 128
	orrs	r3, r3, r1
	str	r3, [r2, #8]
	.loc 1 135 0
	mov	r2, #1024
	movt	r2, 16386
	mov	r3, #1024
	movt	r3, 16386
	ldr	r1, [r3, #12]
	movw	r3, #62448
	movt	r3, 65343
	ands	r3, r3, r1
	str	r3, [r2, #12]
	.loc 1 136 0
	mov	r2, #1024
	movt	r2, 16386
	mov	r3, #1024
	movt	r3, 16386
	ldr	r1, [r3, #12]
	movw	r3, #1029
	movt	r3, 64
	orrs	r3, r3, r1
	str	r3, [r2, #12]
	.loc 1 139 0
	mov	r3, #2048
	movt	r3, 16386
	mov	r2, #2048
	movt	r2, 16386
	ldr	r2, [r2, #0]
	bic	r2, r2, #3840
	str	r2, [r3, #0]
	.loc 1 140 0
	mov	r3, #2048
	movt	r3, 16386
	mov	r2, #2048
	movt	r2, 16386
	ldr	r2, [r2, #0]
	orr	r2, r2, #1280
	str	r2, [r3, #0]
	.loc 1 141 0
	mov	r3, #2048
	movt	r3, 16386
	mov	r2, #2048
	movt	r2, 16386
	ldr	r2, [r2, #4]
	bic	r2, r2, #48
	str	r2, [r3, #4]
	.loc 1 142 0
	mov	r3, #2048
	movt	r3, 16386
	mov	r2, #2048
	movt	r2, 16386
	ldr	r2, [r2, #8]
	bic	r2, r2, #3840
	str	r2, [r3, #8]
	.loc 1 143 0
	mov	r3, #2048
	movt	r3, 16386
	mov	r2, #2048
	movt	r2, 16386
	ldr	r2, [r2, #8]
	orr	r2, r2, #2560
	str	r2, [r3, #8]
	.loc 1 144 0
	mov	r3, #2048
	movt	r3, 16386
	mov	r2, #2048
	movt	r2, 16386
	ldr	r2, [r2, #12]
	bic	r2, r2, #3840
	str	r2, [r3, #12]
	.loc 1 145 0
	mov	r3, #2048
	movt	r3, 16386
	mov	r2, #2048
	movt	r2, 16386
	ldr	r2, [r2, #12]
	orr	r2, r2, #1280
	str	r2, [r3, #12]
	.loc 1 148 0
	mov	r3, #2048
	movt	r3, 16386
	mov	r2, #2048
	movt	r2, 16386
	ldr	r2, [r2, #0]
	bic	r2, r2, #196608
	str	r2, [r3, #0]
	.loc 1 149 0
	mov	r3, #2048
	movt	r3, 16386
	mov	r2, #2048
	movt	r2, 16386
	ldr	r2, [r2, #8]
	bic	r2, r2, #196608
	str	r2, [r3, #8]
	.loc 1 150 0
	mov	r3, #2048
	movt	r3, 16386
	mov	r2, #2048
	movt	r2, 16386
	ldr	r2, [r2, #8]
	orr	r2, r2, #131072
	str	r2, [r3, #8]
	.loc 1 151 0
	mov	r3, #2048
	movt	r3, 16386
	mov	r2, #2048
	movt	r2, 16386
	ldr	r2, [r2, #12]
	bic	r2, r2, #196608
	str	r2, [r3, #12]
	.loc 1 152 0
	mov	r3, #2048
	movt	r3, 16386
	mov	r2, #2048
	movt	r2, 16386
	ldr	r2, [r2, #12]
	orr	r2, r2, #65536
	str	r2, [r3, #12]
	.loc 1 153 0
	mov	sp, r7
	pop	{r7}
	bx	lr
	.cfi_endproc
.LFE0:
	.size	switch_init, .-switch_init
	.align	2
	.global	SEG7_Init
	.thumb
	.thumb_func
	.type	SEG7_Init, %function
SEG7_Init:
.LFB1:
	.loc 1 157 0
	.cfi_startproc
	@ args = 0, pretend = 0, frame = 0
	@ frame_needed = 1, uses_anonymous_args = 0
	@ link register save eliminated.
	push	{r7}
.LCFI2:
	.cfi_def_cfa_offset 4
	.cfi_offset 7, -4
	add	r7, sp, #0
.LCFI3:
	.cfi_def_cfa_register 7
	.loc 1 158 0
	mov	r3, #14336
	movt	r3, 16386
	mov	r2, #14336
	movt	r2, 16386
	ldr	r2, [r2, #48]
	orr	r2, r2, #1
	str	r2, [r3, #48]
	.loc 1 159 0
	mov	r3, #14336
	movt	r3, 16386
	mov	r2, #14336
	movt	r2, 16386
	ldr	r2, [r2, #48]
	orr	r2, r2, #2
	str	r2, [r3, #48]
	.loc 1 160 0
	mov	r3, #14336
	movt	r3, 16386
	mov	r2, #14336
	movt	r2, 16386
	ldr	r2, [r2, #48]
	orr	r2, r2, #4
	str	r2, [r3, #48]
	.loc 1 161 0
	mov	r3, #14336
	movt	r3, 16386
	mov	r2, #14336
	movt	r2, 16386
	ldr	r2, [r2, #48]
	orr	r2, r2, #8
	str	r2, [r3, #48]
	.loc 1 165 0
	mov	r3, #0
	movt	r3, 16386
	mov	r2, #0
	movt	r2, 16386
	ldr	r2, [r2, #0]
	bic	r2, r2, #12
	str	r2, [r3, #0]
	.loc 1 166 0
	mov	r3, #0
	movt	r3, 16386
	mov	r2, #0
	movt	r2, 16386
	ldr	r2, [r2, #0]
	orr	r2, r2, #4
	str	r2, [r3, #0]
	.loc 1 167 0
	mov	r3, #0
	movt	r3, 16386
	mov	r2, #0
	movt	r2, 16386
	ldr	r2, [r2, #4]
	bic	r2, r2, #2
	str	r2, [r3, #4]
	.loc 1 168 0
	mov	r3, #0
	movt	r3, 16386
	mov	r2, #0
	movt	r2, 16386
	ldr	r2, [r2, #8]
	bic	r2, r2, #12
	str	r2, [r3, #8]
	.loc 1 169 0
	mov	r3, #0
	movt	r3, 16386
	mov	r2, #0
	movt	r2, 16386
	ldr	r2, [r2, #8]
	orr	r2, r2, #8
	str	r2, [r3, #8]
	.loc 1 170 0
	mov	r3, #0
	movt	r3, 16386
	mov	r2, #0
	movt	r2, 16386
	ldr	r2, [r2, #12]
	bic	r2, r2, #12
	str	r2, [r3, #12]
	.loc 1 171 0
	mov	r3, #0
	movt	r3, 16386
	mov	r2, #0
	movt	r2, 16386
	ldr	r2, [r2, #12]
	orr	r2, r2, #4
	str	r2, [r3, #12]
	.loc 1 174 0
	mov	r2, #1024
	movt	r2, 16386
	mov	r3, #1024
	movt	r3, 16386
	ldr	r1, [r3, #0]
	movw	r3, #61680
	movt	r3, 65343
	ands	r3, r3, r1
	str	r3, [r2, #0]
	.loc 1 175 0
	mov	r2, #1024
	movt	r2, 16386
	mov	r3, #1024
	movt	r3, 16386
	ldr	r1, [r3, #0]
	movw	r3, #1285
	movt	r3, 64
	orrs	r3, r3, r1
	str	r3, [r2, #0]
	.loc 1 176 0
	mov	r3, #1024
	movt	r3, 16386
	mov	r2, #1024
	movt	r2, 16386
	ldr	r2, [r2, #4]
	bic	r2, r2, #2096
	bic	r2, r2, #3
	str	r2, [r3, #4]
	.loc 1 177 0
	mov	r2, #1024
	movt	r2, 16386
	mov	r3, #1024
	movt	r3, 16386
	ldr	r1, [r3, #8]
	movw	r3, #61680
	movt	r3, 65343
	ands	r3, r3, r1
	str	r3, [r2, #8]
	.loc 1 178 0
	mov	r2, #1024
	movt	r2, 16386
	mov	r3, #1024
	movt	r3, 16386
	ldr	r1, [r3, #8]
	movw	r3, #2570
	movt	r3, 128
	orrs	r3, r3, r1
	str	r3, [r2, #8]
	.loc 1 179 0
	mov	r2, #1024
	movt	r2, 16386
	mov	r3, #1024
	movt	r3, 16386
	ldr	r1, [r3, #12]
	movw	r3, #61680
	movt	r3, 65343
	ands	r3, r3, r1
	str	r3, [r2, #12]
	.loc 1 180 0
	mov	r2, #1024
	movt	r2, 16386
	mov	r3, #1024
	movt	r3, 16386
	ldr	r1, [r3, #12]
	movw	r3, #1285
	movt	r3, 64
	orrs	r3, r3, r1
	str	r3, [r2, #12]
	.loc 1 183 0
	mov	r2, #2048
	movt	r2, 16386
	mov	r3, #2048
	movt	r3, 16386
	ldr	r1, [r3, #0]
	movw	r3, #61635
	movt	r3, 65343
	ands	r3, r3, r1
	str	r3, [r2, #0]
	.loc 1 184 0
	mov	r2, #2048
	movt	r2, 16386
	mov	r3, #2048
	movt	r3, 16386
	ldr	r1, [r3, #0]
	movw	r3, #1300
	movt	r3, 64
	orrs	r3, r3, r1
	str	r3, [r2, #0]
	.loc 1 185 0
	mov	r3, #2048
	movt	r3, 16386
	mov	r2, #2048
	movt	r2, 16386
	ldr	r2, [r2, #4]
	bic	r2, r2, #2096
	bic	r2, r2, #6
	str	r2, [r3, #4]
	.loc 1 186 0
	mov	r2, #2048
	movt	r2, 16386
	mov	r3, #2048
	movt	r3, 16386
	ldr	r1, [r3, #8]
	movw	r3, #61635
	movt	r3, 65343
	ands	r3, r3, r1
	str	r3, [r2, #8]
	.loc 1 187 0
	mov	r2, #2048
	movt	r2, 16386
	mov	r3, #2048
	movt	r3, 16386
	ldr	r1, [r3, #8]
	movw	r3, #2600
	movt	r3, 128
	orrs	r3, r3, r1
	str	r3, [r2, #8]
	.loc 1 188 0
	mov	r2, #2048
	movt	r2, 16386
	mov	r3, #2048
	movt	r3, 16386
	ldr	r1, [r3, #12]
	movw	r3, #61635
	movt	r3, 65343
	ands	r3, r3, r1
	str	r3, [r2, #12]
	.loc 1 189 0
	mov	r2, #2048
	movt	r2, 16386
	mov	r3, #2048
	movt	r3, 16386
	ldr	r1, [r3, #12]
	movw	r3, #1300
	movt	r3, 64
	orrs	r3, r3, r1
	str	r3, [r2, #12]
	.loc 1 192 0
	mov	r3, #3072
	movt	r3, 16386
	mov	r2, #3072
	movt	r2, 16386
	ldr	r2, [r2, #0]
	bic	r2, r2, #48
	str	r2, [r3, #0]
	.loc 1 193 0
	mov	r3, #3072
	movt	r3, 16386
	mov	r2, #3072
	movt	r2, 16386
	ldr	r2, [r2, #0]
	orr	r2, r2, #16
	str	r2, [r3, #0]
	.loc 1 194 0
	mov	r3, #3072
	movt	r3, 16386
	mov	r2, #3072
	movt	r2, 16386
	ldr	r2, [r2, #4]
	bic	r2, r2, #4
	str	r2, [r3, #4]
	.loc 1 195 0
	mov	r3, #3072
	movt	r3, 16386
	mov	r2, #3072
	movt	r2, 16386
	ldr	r2, [r2, #8]
	bic	r2, r2, #48
	str	r2, [r3, #8]
	.loc 1 196 0
	mov	r3, #3072
	movt	r3, 16386
	mov	r2, #3072
	movt	r2, 16386
	ldr	r2, [r2, #8]
	orr	r2, r2, #32
	str	r2, [r3, #8]
	.loc 1 197 0
	mov	r3, #3072
	movt	r3, 16386
	mov	r2, #3072
	movt	r2, 16386
	ldr	r2, [r2, #12]
	bic	r2, r2, #48
	str	r2, [r3, #12]
	.loc 1 198 0
	mov	r3, #3072
	movt	r3, 16386
	mov	r2, #3072
	movt	r2, 16386
	ldr	r2, [r2, #12]
	orr	r2, r2, #16
	str	r2, [r3, #12]
	.loc 1 202 0
	mov	r3, #2048
	movt	r3, 16386
	mov	r2, #2048
	movt	r2, 16386
	ldrh	r2, [r2, #24]
	orr	r2, r2, #2048
	uxth	r2, r2
	strh	r2, [r3, #24]	@ movhi
	.loc 1 203 0
	mov	r3, #3072
	movt	r3, 16386
	mov	r2, #3072
	movt	r2, 16386
	ldrh	r2, [r2, #24]
	orr	r2, r2, #4
	uxth	r2, r2
	strh	r2, [r3, #24]	@ movhi
	.loc 1 207 0
	mov	r3, #1024
	movt	r3, 16386
	mov	r2, #1024
	movt	r2, 16386
	ldrh	r2, [r2, #24]
	orr	r2, r2, #16
	uxth	r2, r2
	strh	r2, [r3, #24]	@ movhi
	.loc 1 210 0
	mov	r3, #2048
	movt	r3, 16386
	mov	r2, #2048
	movt	r2, 16386
	ldrh	r2, [r2, #24]
	orr	r2, r2, #4
	uxth	r2, r2
	strh	r2, [r3, #24]	@ movhi
	.loc 1 211 0
	mov	r3, #0
	movt	r3, 16386
	mov	r2, #0
	movt	r2, 16386
	ldrh	r2, [r2, #24]
	orr	r2, r2, #2
	uxth	r2, r2
	strh	r2, [r3, #24]	@ movhi
	.loc 1 212 0
	mov	r3, #2048
	movt	r3, 16386
	mov	r2, #2048
	movt	r2, 16386
	ldrh	r2, [r2, #24]
	orr	r2, r2, #16
	uxth	r2, r2
	strh	r2, [r3, #24]	@ movhi
	.loc 1 213 0
	mov	r3, #1024
	movt	r3, 16386
	mov	r2, #1024
	movt	r2, 16386
	ldrh	r2, [r2, #24]
	orr	r2, r2, #2
	uxth	r2, r2
	strh	r2, [r3, #24]	@ movhi
	.loc 1 214 0
	mov	r3, #2048
	movt	r3, 16386
	mov	r2, #2048
	movt	r2, 16386
	ldrh	r2, [r2, #24]
	orr	r2, r2, #32
	uxth	r2, r2
	strh	r2, [r3, #24]	@ movhi
	.loc 1 215 0
	mov	r3, #1024
	movt	r3, 16386
	mov	r2, #1024
	movt	r2, 16386
	ldrh	r2, [r2, #24]
	orr	r2, r2, #1
	uxth	r2, r2
	strh	r2, [r3, #24]	@ movhi
	.loc 1 216 0
	mov	r3, #1024
	movt	r3, 16386
	mov	r2, #1024
	movt	r2, 16386
	ldrh	r2, [r2, #24]
	orr	r2, r2, #2048
	uxth	r2, r2
	strh	r2, [r3, #24]	@ movhi
	.loc 1 219 0
	mov	r3, #2048
	movt	r3, 16386
	mov	r2, #2048
	movt	r2, 16386
	ldrh	r2, [r2, #26]
	orr	r2, r2, #2048
	uxth	r2, r2
	strh	r2, [r3, #26]	@ movhi
	.loc 1 220 0
	mov	r3, #2048
	movt	r3, 16386
	mov	r2, #2048
	movt	r2, 16386
	ldrh	r2, [r2, #24]
	orr	r2, r2, #2048
	uxth	r2, r2
	strh	r2, [r3, #24]	@ movhi
	.loc 1 223 0
	mov	r3, #1024
	movt	r3, 16386
	mov	r2, #1024
	movt	r2, 16386
	ldrh	r2, [r2, #26]
	orr	r2, r2, #16
	uxth	r2, r2
	strh	r2, [r3, #26]	@ movhi
	.loc 1 225 0
	mov	sp, r7
	pop	{r7}
	bx	lr
	.cfi_endproc
.LFE1:
	.size	SEG7_Init, .-SEG7_Init
	.align	2
	.global	LED_Init
	.thumb
	.thumb_func
	.type	LED_Init, %function
LED_Init:
.LFB2:
	.loc 1 230 0
	.cfi_startproc
	@ args = 0, pretend = 0, frame = 0
	@ frame_needed = 1, uses_anonymous_args = 0
	@ link register save eliminated.
	push	{r7}
.LCFI4:
	.cfi_def_cfa_offset 4
	.cfi_offset 7, -4
	add	r7, sp, #0
.LCFI5:
	.cfi_def_cfa_register 7
	.loc 1 232 0
	mov	r3, #14336
	movt	r3, 16386
	mov	r2, #14336
	movt	r2, 16386
	ldr	r2, [r2, #48]
	orr	r2, r2, #8
	str	r2, [r3, #48]
	.loc 1 234 0
	mov	r3, #3072
	movt	r3, 16386
	mov	r2, #3072
	movt	r2, 16386
	ldr	r2, [r2, #0]
	bic	r2, r2, #-16777216
	str	r2, [r3, #0]
	.loc 1 238 0
	mov	r3, #3072
	movt	r3, 16386
	mov	r2, #3072
	movt	r2, 16386
	ldr	r2, [r2, #0]
	orr	r2, r2, #1426063360
	str	r2, [r3, #0]
	.loc 1 242 0
	mov	r3, #3072
	movt	r3, 16386
	mov	r2, #3072
	movt	r2, 16386
	ldr	r2, [r2, #4]
	bic	r2, r2, #61440
	str	r2, [r3, #4]
	.loc 1 246 0
	mov	r3, #3072
	movt	r3, 16386
	mov	r2, #3072
	movt	r2, 16386
	ldr	r2, [r2, #8]
	bic	r2, r2, #-16777216
	str	r2, [r3, #8]
	.loc 1 250 0
	mov	r3, #3072
	movt	r3, 16386
	mov	r2, #3072
	movt	r2, 16386
	ldr	r2, [r2, #8]
	orr	r2, r2, #-1442840576
	str	r2, [r3, #8]
	.loc 1 254 0
	mov	r3, #3072
	movt	r3, 16386
	mov	r2, #3072
	movt	r2, 16386
	ldr	r2, [r2, #12]
	bic	r2, r2, #-16777216
	str	r2, [r3, #12]
	.loc 1 258 0
	mov	r3, #3072
	movt	r3, 16386
	mov	r2, #3072
	movt	r2, 16386
	ldr	r2, [r2, #12]
	orr	r2, r2, #1426063360
	str	r2, [r3, #12]
	.loc 1 262 0
	mov	sp, r7
	pop	{r7}
	bx	lr
	.cfi_endproc
.LFE2:
	.size	LED_Init, .-LED_Init
	.align	2
	.global	LED_On
	.thumb
	.thumb_func
	.type	LED_On, %function
LED_On:
.LFB3:
	.loc 1 267 0
	.cfi_startproc
	@ args = 0, pretend = 0, frame = 8
	@ frame_needed = 1, uses_anonymous_args = 0
	@ link register save eliminated.
	push	{r7}
.LCFI6:
	.cfi_def_cfa_offset 4
	.cfi_offset 7, -4
	sub	sp, sp, #12
.LCFI7:
	.cfi_def_cfa_offset 16
	add	r7, sp, #0
.LCFI8:
	.cfi_def_cfa_register 7
	str	r0, [r7, #4]
	.loc 1 269 0
	ldr	r3, [r7, #4]
	cmp	r3, #3
	bhi	.L4
	.loc 1 270 0
	mov	r3, #3072
	movt	r3, 16386
	movw	r2, #:lower16:led_mask
	movt	r2, #:upper16:led_mask
	ldr	r1, [r7, #4]
	ldr	r2, [r2, r1, lsl #2]
	uxth	r2, r2
	strh	r2, [r3, #24]	@ movhi
.L4:
	.loc 1 272 0
	add	r7, r7, #12
	mov	sp, r7
	pop	{r7}
	bx	lr
	.cfi_endproc
.LFE3:
	.size	LED_On, .-LED_On
	.align	2
	.global	LED_Off
	.thumb
	.thumb_func
	.type	LED_Off, %function
LED_Off:
.LFB4:
	.loc 1 277 0
	.cfi_startproc
	@ args = 0, pretend = 0, frame = 8
	@ frame_needed = 1, uses_anonymous_args = 0
	@ link register save eliminated.
	push	{r7}
.LCFI9:
	.cfi_def_cfa_offset 4
	.cfi_offset 7, -4
	sub	sp, sp, #12
.LCFI10:
	.cfi_def_cfa_offset 16
	add	r7, sp, #0
.LCFI11:
	.cfi_def_cfa_register 7
	str	r0, [r7, #4]
	.loc 1 279 0
	ldr	r3, [r7, #4]
	cmp	r3, #3
	bhi	.L6
	.loc 1 280 0
	mov	r3, #3072
	movt	r3, 16386
	movw	r2, #:lower16:led_mask
	movt	r2, #:upper16:led_mask
	ldr	r1, [r7, #4]
	ldr	r2, [r2, r1, lsl #2]
	uxth	r2, r2
	strh	r2, [r3, #26]	@ movhi
.L6:
	.loc 1 282 0
	add	r7, r7, #12
	mov	sp, r7
	pop	{r7}
	bx	lr
	.cfi_endproc
.LFE4:
	.size	LED_Off, .-LED_Off
	.align	2
	.global	LED_Out
	.thumb
	.thumb_func
	.type	LED_Out, %function
LED_Out:
.LFB5:
	.loc 1 287 0
	.cfi_startproc
	@ args = 0, pretend = 0, frame = 16
	@ frame_needed = 1, uses_anonymous_args = 0
	push	{r7, lr}
.LCFI12:
	.cfi_def_cfa_offset 8
	.cfi_offset 7, -8
	.cfi_offset 14, -4
	sub	sp, sp, #16
.LCFI13:
	.cfi_def_cfa_offset 24
	add	r7, sp, #0
.LCFI14:
	.cfi_def_cfa_register 7
	str	r0, [r7, #4]
	.loc 1 290 0
	mov	r3, #0
	str	r3, [r7, #12]
	b	.L9
.L12:
	.loc 1 291 0
	mov	r2, #1
	ldr	r3, [r7, #12]
	lsl	r3, r2, r3
	mov	r2, r3
	ldr	r3, [r7, #4]
	ands	r3, r3, r2
	cmp	r3, #0
	beq	.L10
	.loc 1 292 0
	ldr	r3, [r7, #12]
	mov	r0, r3
	bl	LED_On
	b	.L11
.L10:
	.loc 1 294 0
	ldr	r3, [r7, #12]
	mov	r0, r3
	bl	LED_Off
.L11:
	.loc 1 290 0
	ldr	r3, [r7, #12]
	add	r3, r3, #1
	str	r3, [r7, #12]
.L9:
	.loc 1 290 0 is_stmt 0 discriminator 1
	ldr	r3, [r7, #12]
	cmp	r3, #3
	ble	.L12
	.loc 1 297 0 is_stmt 1
	add	r7, r7, #16
	mov	sp, r7
	pop	{r7, pc}
	.cfi_endproc
.LFE5:
	.size	LED_Out, .-LED_Out
.Letext0:
	.file 2 "c:/yagarto/lib/gcc/../../arm-none-eabi/sys-include/stdint.h"