	.syntax unified
	.cpu cortex-m4
	.fpu softvfp
	.eabi_attribute 20, 1
	.eabi_attribute 21, 1
	.eabi_attribute 23, 3
	.eabi_attribute 24, 1
	.eabi_attribute 25, 1
	.eabi_attribute 26, 1
	.eabi_attribute 30, 6
	.eabi_attribute 34, 1
	.eabi_attribute 18, 4
	.thumb
	.file	"STM32F4main01.c"
	.text
.Ltext0:
	.cfi_sections	.debug_frame
	.comm	Cint,4,4
	.global	SEG7_COUNTER
	.data
	.align	2
	.type	SEG7_COUNTER, %object
	.size	SEG7_COUNTER, 4
SEG7_COUNTER:
	.word	1
	.global	SEG7_DIGIT1
	.align	2
	.type	SEG7_DIGIT1, %object
	.size	SEG7_DIGIT1, 4
SEG7_DIGIT1:
	.word	14
	.global	SEG7_DIGIT2
	.align	2
	.type	SEG7_DIGIT2, %object
	.size	SEG7_DIGIT2, 4
SEG7_DIGIT2:
	.word	15
	.global	SEG7_DIGIT3
	.align	2
	.type	SEG7_DIGIT3, %object
	.size	SEG7_DIGIT3, 4
SEG7_DIGIT3:
	.word	16
	.global	SEG7_DIGIT4
	.align	2
	.type	SEG7_DIGIT4, %object
	.size	SEG7_DIGIT4, 4
SEG7_DIGIT4:
	.word	3
	.global	SEG7_COLON_DEGREE
	.align	2
	.type	SEG7_COLON_DEGREE, %object
	.size	SEG7_COLON_DEGREE, 4
SEG7_COLON_DEGREE:
	.word	10
	.global	LED_GREEN
	.align	2
	.type	LED_GREEN, %object
	.size	LED_GREEN, 4
LED_GREEN:
	.word	12
	.global	LED_RED
	.align	2
	.type	LED_RED, %object
	.size	LED_RED, 4
LED_RED:
	.word	3
	.global	SWITCHES
	.bss
	.align	2
	.type	SWITCHES, %object
	.size	SWITCHES, 4
SWITCHES:
	.space	4
	.global	SW_READ_ODD
	.align	2
	.type	SW_READ_ODD, %object
	.size	SW_READ_ODD, 4
SW_READ_ODD:
	.space	4
	.global	SW_READ_EVEN
	.align	2
	.type	SW_READ_EVEN, %object
	.size	SW_READ_EVEN, 4
SW_READ_EVEN:
	.space	4
	.global	MODE
	.align	2
	.type	MODE, %object
	.size	MODE, 4
MODE:
	.space	4
	.comm	SystemCoreClock,4,4
	.text
	.align	2
	.global	SystemCoreClockUpdate
	.thumb
	.thumb_func
	.type	SystemCoreClockUpdate, %function
SystemCoreClockUpdate:
.LFB0:
	.file 1 "STM32F4main01.c"
	.loc 1 325 0
	.cfi_startproc
	@ args = 0, pretend = 0, frame = 24
	@ frame_needed = 1, uses_anonymous_args = 0
	@ link register save eliminated.
	push	{r7}
.LCFI0:
	.cfi_def_cfa_offset 4
	.cfi_offset 7, -4
	sub	sp, sp, #28
.LCFI1:
	.cfi_def_cfa_offset 32
	add	r7, sp, #0
.LCFI2:
	.cfi_def_cfa_register 7
	.loc 1 326 0
	mov	r3, #0
	str	r3, [r7, #16]
	mov	r3, #0
	str	r3, [r7, #20]
	mov	r3, #2
	str	r3, [r7, #12]
	mov	r3, #0
	str	r3, [r7, #8]
	mov	r3, #2
	str	r3, [r7, #4]
	.loc 1 329 0
	mov	r3, #14336
	movt	r3, 16386
	ldr	r3, [r3, #8]
	and	r3, r3, #12
	str	r3, [r7, #16]
	.loc 1 331 0
	ldr	r3, [r7, #16]
	cmp	r3, #4
	beq	.L4
	cmp	r3, #8
	beq	.L5
	cmp	r3, #0
	bne	.L9
.L3:
	.loc 1 334 0
	movw	r3, #:lower16:SystemCoreClock
	movt	r3, #:upper16:SystemCoreClock
	mov	r2, #9216
	movt	r2, 244
	str	r2, [r3, #0]
	.loc 1 335 0
	b	.L1
.L4:
	.loc 1 337 0
	movw	r3, #:lower16:SystemCoreClock
	movt	r3, #:upper16:SystemCoreClock
	movw	r2, #30784
	movt	r2, 381
	str	r2, [r3, #0]
	.loc 1 338 0
	b	.L1
.L5:
	.loc 1 344 0
	mov	r3, #14336
	movt	r3, 16386
	ldr	r3, [r3, #4]
	and	r3, r3, #4194304
	lsr	r3, r3, #22
	str	r3, [r7, #8]
	.loc 1 345 0
	mov	r3, #14336
	movt	r3, 16386
	ldr	r3, [r3, #4]
	and	r3, r3, #63
	str	r3, [r7, #4]
	.loc 1 347 0
	ldr	r3, [r7, #8]
	cmp	r3, #0
	beq	.L7
	.loc 1 350 0
	movw	r3, #30784
	movt	r3, 381
	ldr	r2, [r7, #4]
	udiv	r2, r3, r2
	mov	r3, #14336
	movt	r3, 16386
	ldr	r1, [r3, #4]
	movw	r3, #32704
	ands	r3, r3, r1
	lsr	r3, r3, #6
	mul	r3, r3, r2
	str	r3, [r7, #20]
	b	.L8
.L7:
	.loc 1 355 0
	mov	r3, #9216
	movt	r3, 244
	ldr	r2, [r7, #4]
	udiv	r2, r3, r2
	mov	r3, #14336
	movt	r3, 16386
	ldr	r1, [r3, #4]
	movw	r3, #32704
	ands	r3, r3, r1
	lsr	r3, r3, #6
	mul	r3, r3, r2
	str	r3, [r7, #20]
.L8:
	.loc 1 358 0
	mov	r3, #14336
	movt	r3, 16386
	ldr	r3, [r3, #4]
	and	r3, r3, #196608
	lsr	r3, r3, #16
	add	r3, r3, #1
	lsl	r3, r3, #1
	str	r3, [r7, #12]
	.loc 1 359 0
	ldr	r2, [r7, #20]
	ldr	r3, [r7, #12]
	udiv	r2, r2, r3
	movw	r3, #:lower16:SystemCoreClock
	movt	r3, #:upper16:SystemCoreClock
	str	r2, [r3, #0]
	.loc 1 360 0
	b	.L1
.L9:
	.loc 1 362 0
	movw	r3, #:lower16:SystemCoreClock
	movt	r3, #:upper16:SystemCoreClock
	mov	r2, #9216
	movt	r2, 244
	str	r2, [r3, #0]
	.loc 1 363 0
	nop
.L1:
	.loc 1 365 0
	add	r7, r7, #28
	mov	sp, r7
	pop	{r7}
	bx	lr
	.cfi_endproc
.LFE0:
	.size	SystemCoreClockUpdate, .-SystemCoreClockUpdate
	.align	2
	.thumb
	.thumb_func
	.type	NVIC_SetPriority, %function
NVIC_SetPriority:
.LFB1:
	.loc 1 370 0
	.cfi_startproc
	@ args = 0, pretend = 0, frame = 8
	@ frame_needed = 1, uses_anonymous_args = 0
	@ link register save eliminated.
	push	{r7}
.LCFI3:
	.cfi_def_cfa_offset 4
	.cfi_offset 7, -4
	sub	sp, sp, #12
.LCFI4:
	.cfi_def_cfa_offset 16
	add	r7, sp, #0
.LCFI5:
	.cfi_def_cfa_register 7
	mov	r3, r0
	str	r1, [r7, #0]
	strb	r3, [r7, #7]
	.loc 1 371 0
	ldrsb	r3, [r7, #7]
	cmp	r3, #0
	bge	.L11
	.loc 1 372 0
	mov	r3, #60672
	movt	r3, 57344
	ldrb	r2, [r7, #7]	@ zero_extendqisi2
	and	r2, r2, #15
	sub	r1, r2, #4
	ldr	r2, [r7, #0]
	uxtb	r2, r2
	lsl	r2, r2, #4
	uxtb	r2, r2
	adds	r3, r3, r1
	strb	r2, [r3, #24]
	b	.L10
.L11:
	.loc 1 374 0
	mov	r3, #57600
	movt	r3, 57344
	ldrsb	r1, [r7, #7]
	ldr	r2, [r7, #0]
	uxtb	r2, r2
	lsl	r2, r2, #4
	uxtb	r2, r2
	adds	r3, r3, r1
	strb	r2, [r3, #768]
.L10:
	.loc 1 375 0
	add	r7, r7, #12
	mov	sp, r7
	pop	{r7}
	bx	lr
	.cfi_endproc
.LFE1:
	.size	NVIC_SetPriority, .-NVIC_SetPriority
	.align	2
	.thumb
	.thumb_func
	.type	SysTick_Config, %function
SysTick_Config:
.LFB2:
	.loc 1 379 0
	.cfi_startproc
	@ args = 0, pretend = 0, frame = 8
	@ frame_needed = 1, uses_anonymous_args = 0
	push	{r7, lr}
.LCFI6:
	.cfi_def_cfa_offset 8
	.cfi_offset 7, -8
	.cfi_offset 14, -4
	sub	sp, sp, #8
.LCFI7:
	.cfi_def_cfa_offset 16
	add	r7, sp, #0
.LCFI8:
	.cfi_def_cfa_register 7
	str	r0, [r7, #4]
	.loc 1 380 0
	ldr	r3, [r7, #4]
	add	r2, r3, #-1
	mvn	r3, #-16777216
	cmp	r2, r3
	bls	.L14
	.loc 1 380 0 is_stmt 0 discriminator 1
	mov	r3, #1
	b	.L15
.L14:
	.loc 1 382 0 is_stmt 1
	movw	r3, #57360
	movt	r3, 57344
	ldr	r2, [r7, #4]
	add	r2, r2, #-1
	str	r2, [r3, #4]
	.loc 1 383 0
	mov	r0, #-1
	mov	r1, #15
	bl	NVIC_SetPriority
	.loc 1 384 0
	movw	r3, #57360
	movt	r3, 57344
	mov	r2, #0
	str	r2, [r3, #8]
	.loc 1 385 0
	movw	r3, #57360
	movt	r3, 57344
	mov	r2, #7
	str	r2, [r3, #0]
	.loc 1 388 0
	mov	r3, #0
.L15:
	.loc 1 389 0
	mov	r0, r3
	add	r7, r7, #8
	mov	sp, r7
	pop	{r7, pc}
	.cfi_endproc
.LFE2:
	.size	SysTick_Config, .-SysTick_Config
	.comm	msTicks,4,4
	.align	2
	.global	SysTick_Handler
	.thumb
	.thumb_func
	.type	SysTick_Handler, %function
SysTick_Handler:
.LFB3:
	.loc 1 395 0
	.cfi_startproc
	@ args = 0, pretend = 0, frame = 0
	@ frame_needed = 1, uses_anonymous_args = 0
	push	{r7, lr}
.LCFI9:
	.cfi_def_cfa_offset 8
	.cfi_offset 7, -8
	.cfi_offset 14, -4
	add	r7, sp, #0
.LCFI10:
	.cfi_def_cfa_register 7
	.loc 1 396 0
	movw	r3, #:lower16:msTicks
	movt	r3, #:upper16:msTicks
	ldr	r3, [r3, #0]
	add	r2, r3, #1
	movw	r3, #:lower16:msTicks
	movt	r3, #:upper16:msTicks
	str	r2, [r3, #0]
	.loc 1 397 0
	bl	switch_cluster_handler
	.loc 1 398 0
	bl	seg7_handler
	.loc 1 399 0
	bl	mode_handler
	.loc 1 400 0
	pop	{r7, pc}
	.cfi_endproc
.LFE3:
	.size	SysTick_Handler, .-SysTick_Handler
	.align	2
	.global	mode_handler
	.thumb
	.thumb_func
	.type	mode_handler, %function
mode_handler:
.LFB4:
	.loc 1 406 0
	.cfi_startproc
	@ args = 0, pretend = 0, frame = 0
	@ frame_needed = 1, uses_anonymous_args = 0
	push	{r7, lr}
.LCFI11:
	.cfi_def_cfa_offset 8
	.cfi_offset 7, -8
	.cfi_offset 14, -4
	add	r7, sp, #0
.LCFI12:
	.cfi_def_cfa_register 7
	.loc 1 407 0
	movw	r3, #:lower16:MODE
	movt	r3, #:upper16:MODE
	ldr	r3, [r3, #0]
	cmp	r3, #1
	beq	.L20
	cmp	r3, #2
	beq	.L21
	cmp	r3, #0
	bne	.L17
.L19:
.LBB2:
	.loc 1 409 0
	movw	r3, #:lower16:SWITCHES
	movt	r3, #:upper16:SWITCHES
	ldr	r3, [r3, #0]
	asr	r3, r3, #8
	and	r3, r3, #1
	cmp	r3, #0
	beq	.L22
	.loc 1 410 0
	movw	r3, #:lower16:MODE
	movt	r3, #:upper16:MODE
	mov	r2, #1
	str	r2, [r3, #0]
	.loc 1 415 0
	b	.L24
.L22:
	.loc 1 412 0
	movw	r3, #:lower16:SWITCHES
	movt	r3, #:upper16:SWITCHES
	ldr	r3, [r3, #0]
	asr	r3, r3, #9
	and	r3, r3, #1
	cmp	r3, #0
	beq	.L24
	.loc 1 413 0
	movw	r3, #:lower16:MODE
	movt	r3, #:upper16:MODE
	mov	r2, #2
	str	r2, [r3, #0]
	.loc 1 415 0
	b	.L24
.L20:
	.loc 1 417 0
	bl	freq_mode_handler
	.loc 1 418 0
	b	.L17
.L21:
	.loc 1 420 0
	bl	test_mode_handler
	.loc 1 421 0
	nop
	b	.L17
.L24:
	.loc 1 415 0
	nop
.L17:
.LBE2:
	.loc 1 423 0
	pop	{r7, pc}
	.cfi_endproc
.LFE4:
	.size	mode_handler, .-mode_handler
	.align	2
	.global	freq_mode_handler
	.thumb
	.thumb_func
	.type	freq_mode_handler, %function
freq_mode_handler:
.LFB5:
	.loc 1 428 0
	.cfi_startproc
	@ args = 0, pretend = 0, frame = 0
	@ frame_needed = 1, uses_anonymous_args = 0
	@ link register save eliminated.
	push	{r7}
.LCFI13:
	.cfi_def_cfa_offset 4
	.cfi_offset 7, -4
	add	r7, sp, #0
.LCFI14:
	.cfi_def_cfa_register 7
	.loc 1 429 0
	movw	r3, #:lower16:SEG7_DIGIT1
	movt	r3, #:upper16:SEG7_DIGIT1
	mov	r2, #10
	str	r2, [r3, #0]
	.loc 1 430 0
	movw	r3, #:lower16:SEG7_DIGIT2
	movt	r3, #:upper16:SEG7_DIGIT2
	mov	r2, #1
	str	r2, [r3, #0]
	.loc 1 431 0
	movw	r3, #:lower16:SEG7_DIGIT3
	movt	r3, #:upper16:SEG7_DIGIT3
	mov	r2, #2
	str	r2, [r3, #0]
	.loc 1 432 0
	movw	r3, #:lower16:SEG7_DIGIT4
	movt	r3, #:upper16:SEG7_DIGIT4
	mov	r2, #5
	str	r2, [r3, #0]
	.loc 1 433 0
	movw	r3, #:lower16:SEG7_COLON_DEGREE
	movt	r3, #:upper16:SEG7_COLON_DEGREE
	mov	r2, #10
	str	r2, [r3, #0]
	.loc 1 435 0
	movw	r3, #:lower16:SWITCHES
	movt	r3, #:upper16:SWITCHES
	ldr	r3, [r3, #0]
	asr	r3, r3, #9
	and	r3, r3, #1
	cmp	r3, #0
	beq	.L25
	.loc 1 436 0
	movw	r3, #:lower16:MODE
	movt	r3, #:upper16:MODE
	mov	r2, #2
	str	r2, [r3, #0]
.L25:
	.loc 1 438 0
	mov	sp, r7
	pop	{r7}
	bx	lr
	.cfi_endproc
.LFE5:
	.size	freq_mode_handler, .-freq_mode_handler
	.align	2
	.global	test_mode_handler
	.thumb
	.thumb_func
	.type	test_mode_handler, %function
test_mode_handler:
.LFB6:
	.loc 1 443 0
	.cfi_startproc
	@ args = 0, pretend = 0, frame = 0
	@ frame_needed = 1, uses_anonymous_args = 0
	@ link register save eliminated.
	push	{r7}
.LCFI15:
	.cfi_def_cfa_offset 4
	.cfi_offset 7, -4
	add	r7, sp, #0
.LCFI16:
	.cfi_def_cfa_register 7
	.loc 1 444 0
	movw	r3, #:lower16:SEG7_DIGIT1
	movt	r3, #:upper16:SEG7_DIGIT1
	mov	r2, #10
	str	r2, [r3, #0]
	.loc 1 445 0
	movw	r3, #:lower16:SEG7_DIGIT2
	movt	r3, #:upper16:SEG7_DIGIT2
	mov	r2, #17
	str	r2, [r3, #0]
	.loc 1 446 0
	movw	r3, #:lower16:SEG7_DIGIT3
	movt	r3, #:upper16:SEG7_DIGIT3
	mov	r2, #1
	str	r2, [r3, #0]
	.loc 1 447 0
	movw	r3, #:lower16:SEG7_DIGIT4
	movt	r3, #:upper16:SEG7_DIGIT4
	mov	r2, #0
	str	r2, [r3, #0]
	.loc 1 448 0
	movw	r3, #:lower16:SEG7_COLON_DEGREE
	movt	r3, #:upper16:SEG7_COLON_DEGREE
	mov	r2, #10
	str	r2, [r3, #0]
	.loc 1 450 0
	movw	r3, #:lower16:SWITCHES
	movt	r3, #:upper16:SWITCHES
	ldr	r3, [r3, #0]
	asr	r3, r3, #8
	and	r3, r3, #1
	cmp	r3, #0
	beq	.L27
	.loc 1 451 0
	movw	r3, #:lower16:MODE
	movt	r3, #:upper16:MODE
	mov	r2, #1
	str	r2, [r3, #0]
.L27:
	.loc 1 453 0
	mov	sp, r7
	pop	{r7}
	bx	lr
	.cfi_endproc
.LFE6:
	.size	test_mode_handler, .-test_mode_handler
	.align	2
	.global	switch_cluster_handler
	.thumb
	.thumb_func
	.type	switch_cluster_handler, %function
switch_cluster_handler:
.LFB7:
	.loc 1 458 0
	.cfi_startproc
	@ args = 0, pretend = 0, frame = 0
	@ frame_needed = 1, uses_anonymous_args = 0
	push	{r7, lr}
.LCFI17:
	.cfi_def_cfa_offset 8
	.cfi_offset 7, -8
	.cfi_offset 14, -4
	add	r7, sp, #0
.LCFI18:
	.cfi_def_cfa_register 7
	.loc 1 459 0
	mov	r0, #1
	bl	switch_handler
	.loc 1 460 0
	mov	r0, #3
	bl	switch_handler
	.loc 1 461 0
	mov	r0, #5
	bl	switch_handler
	.loc 1 462 0
	mov	r0, #7
	bl	switch_handler
	.loc 1 463 0
	mov	r0, #9
	bl	switch_handler
	.loc 1 464 0
	mov	r0, #11
	bl	switch_handler
	.loc 1 465 0
	mov	r0, #13
	bl	switch_handler
	.loc 1 466 0
	pop	{r7, pc}
	.cfi_endproc
.LFE7:
	.size	switch_cluster_handler, .-switch_cluster_handler
	.align	2
	.global	switch_handler
	.thumb
	.thumb_func
	.type	switch_handler, %function
switch_handler:
.LFB8:
	.loc 1 471 0
	.cfi_startproc
	@ args = 0, pretend = 0, frame = 16
	@ frame_needed = 1, uses_anonymous_args = 0
	@ link register save eliminated.
	push	{r7}
.LCFI19:
	.cfi_def_cfa_offset 4
	.cfi_offset 7, -4
	sub	sp, sp, #20
.LCFI20:
	.cfi_def_cfa_offset 24
	add	r7, sp, #0
.LCFI21:
	.cfi_def_cfa_register 7
	str	r0, [r7, #4]
	.loc 1 473 0
	mov	r3, #2048
	movt	r3, 16386
	mov	r2, #2048
	movt	r2, 16386
	ldrh	r2, [r2, #24]
	orr	r2, r2, #4
	uxth	r2, r2
	strh	r2, [r3, #24]	@ movhi
	.loc 1 474 0
	mov	r3, #0
	movt	r3, 16386
	mov	r2, #0
	movt	r2, 16386
	ldrh	r2, [r2, #24]
	orr	r2, r2, #2
	uxth	r2, r2
	strh	r2, [r3, #24]	@ movhi
	.loc 1 475 0
	mov	r3, #2048
	movt	r3, 16386
	mov	r2, #2048
	movt	r2, 16386
	ldrh	r2, [r2, #24]
	orr	r2, r2, #16
	uxth	r2, r2
	strh	r2, [r3, #24]	@ movhi
	.loc 1 476 0
	mov	r3, #1024
	movt	r3, 16386
	mov	r2, #1024
	movt	r2, 16386
	ldrh	r2, [r2, #24]
	orr	r2, r2, #2
	uxth	r2, r2
	strh	r2, [r3, #24]	@ movhi
	.loc 1 477 0
	mov	r3, #2048
	movt	r3, 16386
	mov	r2, #2048
	movt	r2, 16386
	ldrh	r2, [r2, #24]
	orr	r2, r2, #32
	uxth	r2, r2
	strh	r2, [r3, #24]	@ movhi
	.loc 1 478 0
	mov	r3, #1024
	movt	r3, 16386
	mov	r2, #1024
	movt	r2, 16386
	ldrh	r2, [r2, #24]
	orr	r2, r2, #1
	uxth	r2, r2
	strh	r2, [r3, #24]	@ movhi
	.loc 1 479 0
	mov	r3, #1024
	movt	r3, 16386
	mov	r2, #1024
	movt	r2, 16386
	ldrh	r2, [r2, #24]
	orr	r2, r2, #2048
	uxth	r2, r2
	strh	r2, [r3, #24]	@ movhi
	.loc 1 482 0
	mov	r3, #2048
	movt	r3, 16386
	mov	r2, #2048
	movt	r2, 16386
	ldrh	r2, [r2, #26]
	orr	r2, r2, #2048
	uxth	r2, r2
	strh	r2, [r3, #26]	@ movhi
	.loc 1 483 0
	mov	r3, #2048
	movt	r3, 16386
	mov	r2, #2048
	movt	r2, 16386
	ldrh	r2, [r2, #24]
	orr	r2, r2, #2048
	uxth	r2, r2
	strh	r2, [r3, #24]	@ movhi
	.loc 1 486 0
	mov	r3, #1024
	movt	r3, 16386
	mov	r2, #1024
	movt	r2, 16386
	ldrh	r2, [r2, #26]
	orr	r2, r2, #16
	uxth	r2, r2
	strh	r2, [r3, #26]	@ movhi
	.loc 1 489 0
	mov	r3, #1024
	movt	r3, 16386
	mov	r2, #1024
	movt	r2, 16386
	ldrh	r2, [r2, #24]
	orr	r2, r2, #32
	uxth	r2, r2
	strh	r2, [r3, #24]	@ movhi
	.loc 1 490 0
	mov	r3, #1024
	movt	r3, 16386
	mov	r2, #1024
	movt	r2, 16386
	ldrh	r2, [r2, #24]
	orr	r2, r2, #2048
	uxth	r2, r2
	strh	r2, [r3, #24]	@ movhi
	.loc 1 491 0
	mov	r3, #1024
	movt	r3, 16386
	mov	r2, #1024
	movt	r2, 16386
	ldrh	r2, [r2, #24]
	orr	r2, r2, #1
	uxth	r2, r2
	strh	r2, [r3, #24]	@ movhi
	.loc 1 492 0
	mov	r3, #1024
	movt	r3, 16386
	mov	r2, #1024
	movt	r2, 16386
	ldrh	r2, [r2, #24]
	orr	r2, r2, #2
	uxth	r2, r2
	strh	r2, [r3, #24]	@ movhi
	.loc 1 493 0
	mov	r3, #2048
	movt	r3, 16386
	mov	r2, #2048
	movt	r2, 16386
	ldrh	r2, [r2, #24]
	orr	r2, r2, #16
	uxth	r2, r2
	strh	r2, [r3, #24]	@ movhi
	.loc 1 494 0
	mov	r3, #2048
	movt	r3, 16386
	mov	r2, #2048
	movt	r2, 16386
	ldrh	r2, [r2, #24]
	orr	r2, r2, #32
	uxth	r2, r2
	strh	r2, [r3, #24]	@ movhi
	.loc 1 495 0
	mov	r3, #0
	movt	r3, 16386
	mov	r2, #0
	movt	r2, 16386
	ldrh	r2, [r2, #24]
	orr	r2, r2, #2
	uxth	r2, r2
	strh	r2, [r3, #24]	@ movhi
	.loc 1 498 0
	ldr	r3, [r7, #4]
	add	r3, r3, #-1
	cmp	r3, #12
	bhi	.L31
	adr	r2, .L39
	ldr	pc, [r2, r3, lsl #2]
	.align	2
.L39:
	.word	.L32+1
	.word	.L31+1
	.word	.L33+1
	.word	.L31+1
	.word	.L34+1
	.word	.L31+1
	.word	.L35+1
	.word	.L31+1
	.word	.L36+1
	.word	.L31+1
	.word	.L37+1
	.word	.L31+1
	.word	.L38+1
.L32:
	.loc 1 500 0
	mov	r3, #1024
	movt	r3, 16386
	mov	r2, #1024
	movt	r2, 16386
	ldrh	r2, [r2, #26]
	orr	r2, r2, #32
	uxth	r2, r2
	strh	r2, [r3, #26]	@ movhi
	.loc 1 501 0
	b	.L31
.L33:
	.loc 1 503 0
	mov	r3, #1024
	movt	r3, 16386
	mov	r2, #1024
	movt	r2, 16386
	ldrh	r2, [r2, #26]
	orr	r2, r2, #2048
	uxth	r2, r2
	strh	r2, [r3, #26]	@ movhi
	.loc 1 504 0
	b	.L31
.L34:
	.loc 1 506 0
	mov	r3, #1024
	movt	r3, 16386
	mov	r2, #1024
	movt	r2, 16386
	ldrh	r2, [r2, #26]
	orr	r2, r2, #1
	uxth	r2, r2
	strh	r2, [r3, #26]	@ movhi
	.loc 1 507 0
	b	.L31
.L35:
	.loc 1 509 0
	mov	r3, #1024
	movt	r3, 16386
	mov	r2, #1024
	movt	r2, 16386
	ldrh	r2, [r2, #26]
	orr	r2, r2, #2
	uxth	r2, r2
	strh	r2, [r3, #26]	@ movhi
	.loc 1 510 0
	b	.L31
.L36:
	.loc 1 512 0
	mov	r3, #2048
	movt	r3, 16386
	mov	r2, #2048
	movt	r2, 16386
	ldrh	r2, [r2, #26]
	orr	r2, r2, #16
	uxth	r2, r2
	strh	r2, [r3, #26]	@ movhi
	.loc 1 513 0
	b	.L31
.L37:
	.loc 1 515 0
	mov	r3, #2048
	movt	r3, 16386
	mov	r2, #2048
	movt	r2, 16386
	ldrh	r2, [r2, #26]
	orr	r2, r2, #32
	uxth	r2, r2
	strh	r2, [r3, #26]	@ movhi
	.loc 1 516 0
	b	.L31
.L38:
	.loc 1 518 0
	mov	r3, #0
	movt	r3, 16386
	mov	r2, #0
	movt	r2, 16386
	ldrh	r2, [r2, #26]
	orr	r2, r2, #2
	uxth	r2, r2
	strh	r2, [r3, #26]	@ movhi
	.loc 1 519 0
	nop
.L31:
	.loc 1 523 0
	mov	r3, #3072
	movt	r3, 16386
	mov	r2, #3072
	movt	r2, 16386
	ldrh	r2, [r2, #26]
	orr	r2, r2, #4
	uxth	r2, r2
	strh	r2, [r3, #26]	@ movhi
	.loc 1 524 0
	mov	r3, #3072
	movt	r3, 16386
	mov	r2, #3072
	movt	r2, 16386
	ldrh	r2, [r2, #24]
	orr	r2, r2, #4
	uxth	r2, r2
	strh	r2, [r3, #24]	@ movhi
	.loc 1 527 0
	mov	r3, #2048
	movt	r3, 16386
	mov	r2, #2048
	movt	r2, 16386
	ldrh	r2, [r2, #26]
	orr	r2, r2, #2
	uxth	r2, r2
	strh	r2, [r3, #26]	@ movhi
	.loc 1 530 0
	movw	r3, #57005
	str	r3, [r7, #12]
	.loc 1 531 0
	mov	r3, #0
	movt	r3, 16386
	ldr	r3, [r3, #16]
	and	r3, r3, #32768
	cmp	r3, #0
	ite	ne
	movne	r3, #0
	moveq	r3, #1
	uxtb	r3, r3
	str	r3, [r7, #12]
	.loc 1 532 0
	ldr	r3, [r7, #4]
	add	r3, r3, #-1
	mov	r2, #1
	lsl	r3, r2, r3
	mvn	r2, r3
	movw	r3, #:lower16:SWITCHES
	movt	r3, #:upper16:SWITCHES
	ldr	r3, [r3, #0]
	ands	r3, r3, r2
	mov	r2, r3
	movw	r3, #:lower16:SWITCHES
	movt	r3, #:upper16:SWITCHES
	str	r2, [r3, #0]
	.loc 1 533 0
	ldr	r3, [r7, #4]
	add	r3, r3, #-1
	ldr	r2, [r7, #12]
	lsl	r2, r2, r3
	movw	r3, #:lower16:SWITCHES
	movt	r3, #:upper16:SWITCHES
	ldr	r3, [r3, #0]
	orrs	r2, r2, r3
	movw	r3, #:lower16:SWITCHES
	movt	r3, #:upper16:SWITCHES
	str	r2, [r3, #0]
	.loc 1 535 0
	mov	r3, #2048
	movt	r3, 16386
	ldr	r3, [r3, #16]
	and	r3, r3, #256
	cmp	r3, #0
	ite	ne
	movne	r3, #0
	moveq	r3, #1
	uxtb	r3, r3
	str	r3, [r7, #12]
	.loc 1 536 0
	mov	r2, #1
	ldr	r3, [r7, #4]
	lsl	r3, r2, r3
	mvn	r2, r3
	movw	r3, #:lower16:SWITCHES
	movt	r3, #:upper16:SWITCHES
	ldr	r3, [r3, #0]
	ands	r3, r3, r2
	mov	r2, r3
	movw	r3, #:lower16:SWITCHES
	movt	r3, #:upper16:SWITCHES
	str	r2, [r3, #0]
	.loc 1 537 0
	ldr	r2, [r7, #12]
	ldr	r3, [r7, #4]
	lsl	r2, r2, r3
	movw	r3, #:lower16:SWITCHES
	movt	r3, #:upper16:SWITCHES
	ldr	r3, [r3, #0]
	orrs	r2, r2, r3
	movw	r3, #:lower16:SWITCHES
	movt	r3, #:upper16:SWITCHES
	str	r2, [r3, #0]
	.loc 1 539 0
	movw	r3, #2989
	str	r3, [r7, #8]
	.loc 1 540 0
	movw	r3, #:lower16:SWITCHES
	movt	r3, #:upper16:SWITCHES
	ldr	r3, [r3, #0]
	str	r3, [r7, #8]
	.loc 1 543 0
	add	r7, r7, #20
	mov	sp, r7
	pop	{r7}
	bx	lr
	.cfi_endproc
.LFE8:
	.size	switch_handler, .-switch_handler
	.align	2
	.global	Delay
	.thumb
	.thumb_func
	.type	Delay, %function
Delay:
.LFB9:
	.loc 1 549 0
	.cfi_startproc
	@ args = 0, pretend = 0, frame = 16
	@ frame_needed = 1, uses_anonymous_args = 0
	@ link register save eliminated.
	push	{r7}
.LCFI22:
	.cfi_def_cfa_offset 4
	.cfi_offset 7, -4
	sub	sp, sp, #20
.LCFI23:
	.cfi_def_cfa_offset 24
	add	r7, sp, #0
.LCFI24:
	.cfi_def_cfa_register 7
	str	r0, [r7, #4]
	.loc 1 555 0
	movw	r3, #9029
	movt	r3, 1
	str	r3, [r7, #12]
	.loc 1 556 0
	nop
.L41:
	.loc 1 556 0 is_stmt 0 discriminator 1
	ldr	r3, [r7, #12]
	cmp	r3, #0
	ite	eq
	moveq	r3, #0
	movne	r3, #1
	uxtb	r3, r3
	ldr	r2, [r7, #12]
	add	r2, r2, #-1
	str	r2, [r7, #12]
	cmp	r3, #0
	bne	.L41
	.loc 1 557 0 is_stmt 1
	nop
	.loc 1 558 0
	add	r7, r7, #20
	mov	sp, r7
	pop	{r7}
	bx	lr
	.cfi_endproc
.LFE9:
	.size	Delay, .-Delay
	.align	2
	.global	BTN_Init
	.thumb
	.thumb_func
	.type	BTN_Init, %function
BTN_Init:
.LFB10:
	.loc 1 564 0
	.cfi_startproc
	@ args = 0, pretend = 0, frame = 0
	@ frame_needed = 1, uses_anonymous_args = 0
	@ link register save eliminated.
	push	{r7}
.LCFI25:
	.cfi_def_cfa_offset 4
	.cfi_offset 7, -4
	add	r7, sp, #0
.LCFI26:
	.cfi_def_cfa_register 7
	.loc 1 566 0
	mov	r3, #14336
	movt	r3, 16386
	mov	r2, #14336
	movt	r2, 16386
	ldr	r2, [r2, #48]
	orr	r2, r2, #1
	str	r2, [r3, #48]
	.loc 1 568 0
	mov	r3, #0
	movt	r3, 16386
	mov	r2, #0
	movt	r2, 16386
	ldr	r2, [r2, #0]
	bic	r2, r2, #3
	str	r2, [r3, #0]
	.loc 1 569 0
	mov	r3, #0
	movt	r3, 16386
	mov	r2, #0
	movt	r2, 16386
	ldr	r2, [r2, #8]
	bic	r2, r2, #3
	str	r2, [r3, #8]
	.loc 1 570 0
	mov	r3, #0
	movt	r3, 16386
	mov	r2, #0
	movt	r2, 16386
	ldr	r2, [r2, #8]
	orr	r2, r2, #2
	str	r2, [r3, #8]
	.loc 1 571 0
	mov	r3, #0
	movt	r3, 16386
	mov	r2, #0
	movt	r2, 16386
	ldr	r2, [r2, #12]
	bic	r2, r2, #3
	str	r2, [r3, #12]
	.loc 1 572 0
	mov	sp, r7
	pop	{r7}
	bx	lr
	.cfi_endproc
.LFE10:
	.size	BTN_Init, .-BTN_Init
	.align	2
	.global	BTN_Get
	.thumb
	.thumb_func
	.type	BTN_Get, %function
BTN_Get:
.LFB11:
	.loc 1 577 0
	.cfi_startproc
	@ args = 0, pretend = 0, frame = 0
	@ frame_needed = 1, uses_anonymous_args = 0
	@ link register save eliminated.
	push	{r7}
.LCFI27:
	.cfi_def_cfa_offset 4
	.cfi_offset 7, -4
	add	r7, sp, #0
.LCFI28:
	.cfi_def_cfa_register 7
	.loc 1 579 0
	mov	r3, #0
	movt	r3, 16386
	ldr	r3, [r3, #16]
	and	r3, r3, #1
	.loc 1 580 0
	mov	r0, r3
	mov	sp, r7
	pop	{r7}
	bx	lr
	.cfi_endproc
.LFE11:
	.size	BTN_Get, .-BTN_Get
	.align	2
	.global	sub_uchar_from_quad_example
	.thumb
	.thumb_func
	.type	sub_uchar_from_quad_example, %function
sub_uchar_from_quad_example:
.LFB12:
	.loc 1 604 0
	.cfi_startproc
	@ args = 0, pretend = 0, frame = 40
	@ frame_needed = 1, uses_anonymous_args = 0
	push	{r7, lr}
.LCFI29:
	.cfi_def_cfa_offset 8
	.cfi_offset 7, -8
	.cfi_offset 14, -4
	sub	sp, sp, #40
.LCFI30:
	.cfi_def_cfa_offset 48
	add	r7, sp, #0
.LCFI31:
	.cfi_def_cfa_register 7
	.loc 1 607 0
	mov	r3, #0
	str	r3, [r7, #4]
	mov	r3, #0
	str	r3, [r7, #8]
	mov	r3, #0
	str	r3, [r7, #12]
	mov	r3, #4
	str	r3, [r7, #16]
	.loc 1 608 0
	mov	r3, #1
	strb	r3, [r7, #39]
	.loc 1 609 0
	add	r1, r7, #20
	add	r2, r7, #4
	ldrb	r3, [r7, #39]	@ zero_extendqisi2
	mov	r0, r1
	mov	r1, r2
	mov	r2, r3
	bl	sub_uchar_from_quad_asm
	.loc 1 611 0
	mov	r3, #0
	str	r3, [r7, #4]
	.loc 1 612 0
	mov	r3, #0
	str	r3, [r7, #8]
	.loc 1 613 0
	mov	r3, #3
	str	r3, [r7, #12]
	.loc 1 614 0
	mov	r3, #16
	str	r3, [r7, #16]
	.loc 1 615 0
	mov	r3, #32
	strb	r3, [r7, #39]
	.loc 1 616 0
	add	r1, r7, #20
	add	r2, r7, #4
	ldrb	r3, [r7, #39]	@ zero_extendqisi2
	mov	r0, r1
	mov	r1, r2
	mov	r2, r3
	bl	sub_uchar_from_quad_asm
	.loc 1 618 0
	mov	r3, #-2147483648
	str	r3, [r7, #4]
	.loc 1 619 0
	mov	r3, #0
	str	r3, [r7, #8]
	.loc 1 620 0
	mov	r3, #0
	str	r3, [r7, #12]
	.loc 1 621 0
	mov	r3, #0
	str	r3, [r7, #16]
	.loc 1 622 0
	mov	r3, #1
	strb	r3, [r7, #39]
	.loc 1 623 0
	add	r1, r7, #20
	add	r2, r7, #4
	ldrb	r3, [r7, #39]	@ zero_extendqisi2
	mov	r0, r1
	mov	r1, r2
	mov	r2, r3
	bl	sub_uchar_from_quad_asm
	.loc 1 624 0
	add	r7, r7, #40
	mov	sp, r7
	pop	{r7, pc}
	.cfi_endproc
.LFE12:
	.size	sub_uchar_from_quad_example, .-sub_uchar_from_quad_example
	.align	2
	.global	seg7_handler
	.thumb
	.thumb_func
	.type	seg7_handler, %function
seg7_handler:
.LFB13:
	.loc 1 646 0
	.cfi_startproc
	@ args = 0, pretend = 0, frame = 0
	@ frame_needed = 1, uses_anonymous_args = 0
	push	{r7, lr}
.LCFI32:
	.cfi_def_cfa_offset 8
	.cfi_offset 7, -8
	.cfi_offset 14, -4
	add	r7, sp, #0
.LCFI33:
	.cfi_def_cfa_register 7
	.loc 1 647 0
	movw	r3, #:lower16:SEG7_COUNTER
	movt	r3, #:upper16:SEG7_COUNTER
	ldr	r3, [r3, #0]
	add	r3, r3, #-1
	cmp	r3, #4
	bhi	.L48
	adr	r2, .L54
	ldr	pc, [r2, r3, lsl #2]
	.align	2
.L54:
	.word	.L49+1
	.word	.L50+1
	.word	.L51+1
	.word	.L52+1
	.word	.L53+1
.L49:
.LBB3:
	.loc 1 649 0
	movw	r3, #:lower16:SEG7_DIGIT1
	movt	r3, #:upper16:SEG7_DIGIT1
	ldr	r3, [r3, #0]
	mov	r0, #1
	mov	r1, r3
	bl	seg7_update
	.loc 1 650 0
	movw	r3, #:lower16:SEG7_COUNTER
	movt	r3, #:upper16:SEG7_COUNTER
	ldr	r3, [r3, #0]
	add	r2, r3, #1
	movw	r3, #:lower16:SEG7_COUNTER
	movt	r3, #:upper16:SEG7_COUNTER
	str	r2, [r3, #0]
	.loc 1 651 0
	b	.L56
.L50:
	.loc 1 653 0
	movw	r3, #:lower16:SEG7_DIGIT2
	movt	r3, #:upper16:SEG7_DIGIT2
	ldr	r3, [r3, #0]
	mov	r0, #2
	mov	r1, r3
	bl	seg7_update
	.loc 1 654 0
	movw	r3, #:lower16:SEG7_COUNTER
	movt	r3, #:upper16:SEG7_COUNTER
	ldr	r3, [r3, #0]
	add	r2, r3, #1
	movw	r3, #:lower16:SEG7_COUNTER
	movt	r3, #:upper16:SEG7_COUNTER
	str	r2, [r3, #0]
	.loc 1 655 0
	b	.L56
.L51:
	.loc 1 657 0
	movw	r3, #:lower16:SEG7_DIGIT3
	movt	r3, #:upper16:SEG7_DIGIT3
	ldr	r3, [r3, #0]
	mov	r0, #3
	mov	r1, r3
	bl	seg7_update
	.loc 1 658 0
	movw	r3, #:lower16:SEG7_COUNTER
	movt	r3, #:upper16:SEG7_COUNTER
	ldr	r3, [r3, #0]
	add	r2, r3, #1
	movw	r3, #:lower16:SEG7_COUNTER
	movt	r3, #:upper16:SEG7_COUNTER
	str	r2, [r3, #0]
	.loc 1 659 0
	b	.L56
.L52:
	.loc 1 661 0
	movw	r3, #:lower16:SEG7_DIGIT4
	movt	r3, #:upper16:SEG7_DIGIT4
	ldr	r3, [r3, #0]
	mov	r0, #4
	mov	r1, r3
	bl	seg7_update
	.loc 1 662 0
	movw	r3, #:lower16:SEG7_COUNTER
	movt	r3, #:upper16:SEG7_COUNTER
	ldr	r3, [r3, #0]
	add	r2, r3, #1
	movw	r3, #:lower16:SEG7_COUNTER
	movt	r3, #:upper16:SEG7_COUNTER
	str	r2, [r3, #0]
	.loc 1 663 0
	b	.L56
.L53:
	.loc 1 665 0
	movw	r3, #:lower16:SEG7_COLON_DEGREE
	movt	r3, #:upper16:SEG7_COLON_DEGREE
	ldr	r3, [r3, #0]
	mov	r0, #5
	mov	r1, r3
	bl	seg7_update
	.loc 1 666 0
	movw	r3, #:lower16:SEG7_COUNTER
	movt	r3, #:upper16:SEG7_COUNTER
	ldr	r3, [r3, #0]
	add	r2, r3, #1
	movw	r3, #:lower16:SEG7_COUNTER
	movt	r3, #:upper16:SEG7_COUNTER
	str	r2, [r3, #0]
	.loc 1 667 0
	b	.L56
.L48:
	.loc 1 669 0
	movw	r3, #:lower16:SEG7_COUNTER
	movt	r3, #:upper16:SEG7_COUNTER
	mov	r2, #1
	str	r2, [r3, #0]
	.loc 1 670 0
	nop
.L56:
.LBE3:
	.loc 1 672 0
	mov	r0, r3
	pop	{r7, pc}
	.cfi_endproc
.LFE13:
	.size	seg7_handler, .-seg7_handler
	.align	2
	.global	seg7_update
	.thumb
	.thumb_func
	.type	seg7_update, %function
seg7_update:
.LFB14:
	.loc 1 677 0
	.cfi_startproc
	@ args = 0, pretend = 0, frame = 8
	@ frame_needed = 1, uses_anonymous_args = 0
	@ link register save eliminated.
	push	{r7}
.LCFI34:
	.cfi_def_cfa_offset 4
	.cfi_offset 7, -4
	sub	sp, sp, #12
.LCFI35:
	.cfi_def_cfa_offset 16
	add	r7, sp, #0
.LCFI36:
	.cfi_def_cfa_register 7
	str	r0, [r7, #4]
	str	r1, [r7, #0]
	.loc 1 679 0
	mov	r3, #2048
	movt	r3, 16386
	mov	r2, #2048
	movt	r2, 16386
	ldrh	r2, [r2, #24]
	orr	r2, r2, #2
	uxth	r2, r2
	strh	r2, [r3, #24]	@ movhi
	.loc 1 682 0
	ldr	r3, [r7, #0]
	cmp	r3, #17
	bhi	.L58
	adr	r2, .L77
	ldr	pc, [r2, r3, lsl #2]
	.align	2
.L77:
	.word	.L59+1
	.word	.L60+1
	.word	.L61+1
	.word	.L62+1
	.word	.L63+1
	.word	.L64+1
	.word	.L65+1
	.word	.L66+1
	.word	.L67+1
	.word	.L68+1
	.word	.L69+1
	.word	.L70+1
	.word	.L71+1
	.word	.L72+1
	.word	.L73+1
	.word	.L74+1
	.word	.L75+1
	.word	.L76+1
.L59:
	.loc 1 684 0
	mov	r3, #2048
	movt	r3, 16386
	mov	r2, #2048
	movt	r2, 16386
	ldrh	r2, [r2, #26]
	orr	r2, r2, #32
	uxth	r2, r2
	strh	r2, [r3, #26]	@ movhi
	.loc 1 685 0
	mov	r3, #1024
	movt	r3, 16386
	mov	r2, #1024
	movt	r2, 16386
	ldrh	r2, [r2, #26]
	orr	r2, r2, #2
	uxth	r2, r2
	strh	r2, [r3, #26]	@ movhi
	.loc 1 686 0
	mov	r3, #0
	movt	r3, 16386
	mov	r2, #0
	movt	r2, 16386
	ldrh	r2, [r2, #26]
	orr	r2, r2, #2
	uxth	r2, r2
	strh	r2, [r3, #26]	@ movhi
	.loc 1 687 0
	mov	r3, #1024
	movt	r3, 16386
	mov	r2, #1024
	movt	r2, 16386
	ldrh	r2, [r2, #26]
	orr	r2, r2, #32
	uxth	r2, r2
	strh	r2, [r3, #26]	@ movhi
	.loc 1 688 0
	mov	r3, #1024
	movt	r3, 16386
	mov	r2, #1024
	movt	r2, 16386
	ldrh	r2, [r2, #26]
	orr	r2, r2, #2048
	uxth	r2, r2
	strh	r2, [r3, #26]	@ movhi
	.loc 1 689 0
	mov	r3, #2048
	movt	r3, 16386
	mov	r2, #2048
	movt	r2, 16386
	ldrh	r2, [r2, #26]
	orr	r2, r2, #4
	uxth	r2, r2
	strh	r2, [r3, #26]	@ movhi
	.loc 1 690 0
	mov	r3, #2048
	movt	r3, 16386
	mov	r2, #2048
	movt	r2, 16386
	ldrh	r2, [r2, #24]
	orr	r2, r2, #16
	uxth	r2, r2
	strh	r2, [r3, #24]	@ movhi
	.loc 1 691 0
	mov	r3, #1024
	movt	r3, 16386
	mov	r2, #1024
	movt	r2, 16386
	ldrh	r2, [r2, #24]
	orr	r2, r2, #1
	uxth	r2, r2
	strh	r2, [r3, #24]	@ movhi
	.loc 1 692 0
	b	.L58
.L60:
	.loc 1 694 0
	mov	r3, #2048
	movt	r3, 16386
	mov	r2, #2048
	movt	r2, 16386
	ldrh	r2, [r2, #24]
	orr	r2, r2, #32
	uxth	r2, r2
	strh	r2, [r3, #24]	@ movhi
	.loc 1 695 0
	mov	r3, #1024
	movt	r3, 16386
	mov	r2, #1024
	movt	r2, 16386
	ldrh	r2, [r2, #26]
	orr	r2, r2, #2
	uxth	r2, r2
	strh	r2, [r3, #26]	@ movhi
	.loc 1 696 0
	mov	r3, #0
	movt	r3, 16386
	mov	r2, #0
	movt	r2, 16386
	ldrh	r2, [r2, #26]
	orr	r2, r2, #2
	uxth	r2, r2
	strh	r2, [r3, #26]	@ movhi
	.loc 1 697 0
	mov	r3, #1024
	movt	r3, 16386
	mov	r2, #1024
	movt	r2, 16386
	ldrh	r2, [r2, #24]
	orr	r2, r2, #32
	uxth	r2, r2
	strh	r2, [r3, #24]	@ movhi
	.loc 1 698 0
	mov	r3, #1024
	movt	r3, 16386
	mov	r2, #1024
	movt	r2, 16386
	ldrh	r2, [r2, #24]
	orr	r2, r2, #2048
	uxth	r2, r2
	strh	r2, [r3, #24]	@ movhi
	.loc 1 699 0
	mov	r3, #2048
	movt	r3, 16386
	mov	r2, #2048
	movt	r2, 16386
	ldrh	r2, [r2, #24]
	orr	r2, r2, #4
	uxth	r2, r2
	strh	r2, [r3, #24]	@ movhi
	.loc 1 700 0
	mov	r3, #2048
	movt	r3, 16386
	mov	r2, #2048
	movt	r2, 16386
	ldrh	r2, [r2, #24]
	orr	r2, r2, #16
	uxth	r2, r2
	strh	r2, [r3, #24]	@ movhi
	.loc 1 701 0
	mov	r3, #1024
	movt	r3, 16386
	mov	r2, #1024
	movt	r2, 16386
	ldrh	r2, [r2, #24]
	orr	r2, r2, #1
	uxth	r2, r2
	strh	r2, [r3, #24]	@ movhi
	.loc 1 702 0
	b	.L58
.L61:
	.loc 1 704 0
	mov	r3, #2048
	movt	r3, 16386
	mov	r2, #2048
	movt	r2, 16386
	ldrh	r2, [r2, #26]
	orr	r2, r2, #32
	uxth	r2, r2
	strh	r2, [r3, #26]	@ movhi
	.loc 1 705 0
	mov	r3, #1024
	movt	r3, 16386
	mov	r2, #1024
	movt	r2, 16386
	ldrh	r2, [r2, #26]
	orr	r2, r2, #2
	uxth	r2, r2
	strh	r2, [r3, #26]	@ movhi
	.loc 1 706 0
	mov	r3, #0
	movt	r3, 16386
	mov	r2, #0
	movt	r2, 16386
	ldrh	r2, [r2, #24]
	orr	r2, r2, #2
	uxth	r2, r2
	strh	r2, [r3, #24]	@ movhi
	.loc 1 707 0
	mov	r3, #1024
	movt	r3, 16386
	mov	r2, #1024
	movt	r2, 16386
	ldrh	r2, [r2, #26]
	orr	r2, r2, #32
	uxth	r2, r2
	strh	r2, [r3, #26]	@ movhi
	.loc 1 708 0
	mov	r3, #1024
	movt	r3, 16386
	mov	r2, #1024
	movt	r2, 16386
	ldrh	r2, [r2, #26]
	orr	r2, r2, #2048
	uxth	r2, r2
	strh	r2, [r3, #26]	@ movhi
	.loc 1 709 0
	mov	r3, #2048
	movt	r3, 16386
	mov	r2, #2048
	movt	r2, 16386
	ldrh	r2, [r2, #24]
	orr	r2, r2, #4
	uxth	r2, r2
	strh	r2, [r3, #24]	@ movhi
	.loc 1 710 0
	mov	r3, #2048
	movt	r3, 16386
	mov	r2, #2048
	movt	r2, 16386
	ldrh	r2, [r2, #26]
	orr	r2, r2, #16
	uxth	r2, r2
	strh	r2, [r3, #26]	@ movhi
	.loc 1 711 0
	mov	r3, #1024
	movt	r3, 16386
	mov	r2, #1024
	movt	r2, 16386
	ldrh	r2, [r2, #24]
	orr	r2, r2, #1
	uxth	r2, r2
	strh	r2, [r3, #24]	@ movhi
	.loc 1 712 0
	b	.L58
.L62:
	.loc 1 714 0
	mov	r3, #2048
	movt	r3, 16386
	mov	r2, #2048
	movt	r2, 16386
	ldrh	r2, [r2, #26]
	orr	r2, r2, #32
	uxth	r2, r2
	strh	r2, [r3, #26]	@ movhi
	.loc 1 715 0
	mov	r3, #1024
	movt	r3, 16386
	mov	r2, #1024
	movt	r2, 16386
	ldrh	r2, [r2, #26]
	orr	r2, r2, #2
	uxth	r2, r2
	strh	r2, [r3, #26]	@ movhi
	.loc 1 716 0
	mov	r3, #0
	movt	r3, 16386
	mov	r2, #0
	movt	r2, 16386
	ldrh	r2, [r2, #26]
	orr	r2, r2, #2
	uxth	r2, r2
	strh	r2, [r3, #26]	@ movhi
	.loc 1 717 0
	mov	r3, #1024
	movt	r3, 16386
	mov	r2, #1024
	movt	r2, 16386
	ldrh	r2, [r2, #26]
	orr	r2, r2, #32
	uxth	r2, r2
	strh	r2, [r3, #26]	@ movhi
	.loc 1 718 0
	mov	r3, #1024
	movt	r3, 16386
	mov	r2, #1024
	movt	r2, 16386
	ldrh	r2, [r2, #24]
	orr	r2, r2, #2048
	uxth	r2, r2
	strh	r2, [r3, #24]	@ movhi
	.loc 1 719 0
	mov	r3, #2048
	movt	r3, 16386
	mov	r2, #2048
	movt	r2, 16386
	ldrh	r2, [r2, #24]
	orr	r2, r2, #4
	uxth	r2, r2
	strh	r2, [r3, #24]	@ movhi
	.loc 1 720 0
	mov	r3, #2048
	movt	r3, 16386
	mov	r2, #2048
	movt	r2, 16386
	ldrh	r2, [r2, #26]
	orr	r2, r2, #16
	uxth	r2, r2
	strh	r2, [r3, #26]	@ movhi
	.loc 1 721 0
	mov	r3, #1024
	movt	r3, 16386
	mov	r2, #1024
	movt	r2, 16386
	ldrh	r2, [r2, #24]
	orr	r2, r2, #1
	uxth	r2, r2
	strh	r2, [r3, #24]	@ movhi
	.loc 1 722 0
	b	.L58
.L63:
	.loc 1 724 0
	mov	r3, #2048
	movt	r3, 16386
	mov	r2, #2048
	movt	r2, 16386
	ldrh	r2, [r2, #24]
	orr	r2, r2, #32
	uxth	r2, r2
	strh	r2, [r3, #24]	@ movhi
	.loc 1 725 0
	mov	r3, #1024
	movt	r3, 16386
	mov	r2, #1024
	movt	r2, 16386
	ldrh	r2, [r2, #26]
	orr	r2, r2, #2
	uxth	r2, r2
	strh	r2, [r3, #26]	@ movhi
	.loc 1 726 0
	mov	r3, #0
	movt	r3, 16386
	mov	r2, #0
	movt	r2, 16386
	ldrh	r2, [r2, #26]
	orr	r2, r2, #2
	uxth	r2, r2
	strh	r2, [r3, #26]	@ movhi
	.loc 1 727 0
	mov	r3, #1024
	movt	r3, 16386
	mov	r2, #1024
	movt	r2, 16386
	ldrh	r2, [r2, #24]
	orr	r2, r2, #32
	uxth	r2, r2
	strh	r2, [r3, #24]	@ movhi
	.loc 1 728 0
	mov	r3, #1024
	movt	r3, 16386
	mov	r2, #1024
	movt	r2, 16386
	ldrh	r2, [r2, #24]
	orr	r2, r2, #2048
	uxth	r2, r2
	strh	r2, [r3, #24]	@ movhi
	.loc 1 729 0
	mov	r3, #2048
	movt	r3, 16386
	mov	r2, #2048
	movt	r2, 16386
	ldrh	r2, [r2, #26]
	orr	r2, r2, #4
	uxth	r2, r2
	strh	r2, [r3, #26]	@ movhi
	.loc 1 730 0
	mov	r3, #2048
	movt	r3, 16386
	mov	r2, #2048
	movt	r2, 16386
	ldrh	r2, [r2, #26]
	orr	r2, r2, #16
	uxth	r2, r2
	strh	r2, [r3, #26]	@ movhi
	.loc 1 731 0
	mov	r3, #1024
	movt	r3, 16386
	mov	r2, #1024
	movt	r2, 16386
	ldrh	r2, [r2, #24]
	orr	r2, r2, #1
	uxth	r2, r2
	strh	r2, [r3, #24]	@ movhi
	.loc 1 732 0
	b	.L58
.L64:
	.loc 1 734 0
	mov	r3, #2048
	movt	r3, 16386
	mov	r2, #2048
	movt	r2, 16386
	ldrh	r2, [r2, #26]
	orr	r2, r2, #32
	uxth	r2, r2
	strh	r2, [r3, #26]	@ movhi
	.loc 1 735 0
	mov	r3, #1024
	movt	r3, 16386
	mov	r2, #1024
	movt	r2, 16386
	ldrh	r2, [r2, #24]
	orr	r2, r2, #2
	uxth	r2, r2
	strh	r2, [r3, #24]	@ movhi
	.loc 1 736 0
	mov	r3, #0
	movt	r3, 16386
	mov	r2, #0
	movt	r2, 16386
	ldrh	r2, [r2, #26]
	orr	r2, r2, #2
	uxth	r2, r2
	strh	r2, [r3, #26]	@ movhi
	.loc 1 737 0
	mov	r3, #1024
	movt	r3, 16386
	mov	r2, #1024
	movt	r2, 16386
	ldrh	r2, [r2, #26]
	orr	r2, r2, #32
	uxth	r2, r2
	strh	r2, [r3, #26]	@ movhi
	.loc 1 738 0
	mov	r3, #1024
	movt	r3, 16386
	mov	r2, #1024
	movt	r2, 16386
	ldrh	r2, [r2, #24]
	orr	r2, r2, #2048
	uxth	r2, r2
	strh	r2, [r3, #24]	@ movhi
	.loc 1 739 0
	mov	r3, #2048
	movt	r3, 16386
	mov	r2, #2048
	movt	r2, 16386
	ldrh	r2, [r2, #26]
	orr	r2, r2, #4
	uxth	r2, r2
	strh	r2, [r3, #26]	@ movhi
	.loc 1 740 0
	mov	r3, #2048
	movt	r3, 16386
	mov	r2, #2048
	movt	r2, 16386
	ldrh	r2, [r2, #26]
	orr	r2, r2, #16
	uxth	r2, r2
	strh	r2, [r3, #26]	@ movhi
	.loc 1 741 0
	mov	r3, #1024
	movt	r3, 16386
	mov	r2, #1024
	movt	r2, 16386
	ldrh	r2, [r2, #24]
	orr	r2, r2, #1
	uxth	r2, r2
	strh	r2, [r3, #24]	@ movhi
	.loc 1 742 0
	b	.L58
.L65:
	.loc 1 744 0
	mov	r3, #2048
	movt	r3, 16386
	mov	r2, #2048
	movt	r2, 16386
	ldrh	r2, [r2, #26]
	orr	r2, r2, #32
	uxth	r2, r2
	strh	r2, [r3, #26]	@ movhi
	.loc 1 745 0
	mov	r3, #1024
	movt	r3, 16386
	mov	r2, #1024
	movt	r2, 16386
	ldrh	r2, [r2, #24]
	orr	r2, r2, #2
	uxth	r2, r2
	strh	r2, [r3, #24]	@ movhi
	.loc 1 746 0
	mov	r3, #0
	movt	r3, 16386
	mov	r2, #0
	movt	r2, 16386
	ldrh	r2, [r2, #26]
	orr	r2, r2, #2
	uxth	r2, r2
	strh	r2, [r3, #26]	@ movhi
	.loc 1 747 0
	mov	r3, #1024
	movt	r3, 16386
	mov	r2, #1024
	movt	r2, 16386
	ldrh	r2, [r2, #26]
	orr	r2, r2, #32
	uxth	r2, r2
	strh	r2, [r3, #26]	@ movhi
	.loc 1 748 0
	mov	r3, #1024
	movt	r3, 16386
	mov	r2, #1024
	movt	r2, 16386
	ldrh	r2, [r2, #26]
	orr	r2, r2, #2048
	uxth	r2, r2
	strh	r2, [r3, #26]	@ movhi
	.loc 1 749 0
	mov	r3, #2048
	movt	r3, 16386
	mov	r2, #2048
	movt	r2, 16386
	ldrh	r2, [r2, #26]
	orr	r2, r2, #4
	uxth	r2, r2
	strh	r2, [r3, #26]	@ movhi
	.loc 1 750 0
	mov	r3, #2048
	movt	r3, 16386
	mov	r2, #2048
	movt	r2, 16386
	ldrh	r2, [r2, #26]
	orr	r2, r2, #16
	uxth	r2, r2
	strh	r2, [r3, #26]	@ movhi
	.loc 1 751 0
	mov	r3, #1024
	movt	r3, 16386
	mov	r2, #1024
	movt	r2, 16386
	ldrh	r2, [r2, #24]
	orr	r2, r2, #1
	uxth	r2, r2
	strh	r2, [r3, #24]	@ movhi
	.loc 1 752 0
	b	.L58
.L66:
	.loc 1 754 0
	mov	r3, #2048
	movt	r3, 16386
	mov	r2, #2048
	movt	r2, 16386
	ldrh	r2, [r2, #26]
	orr	r2, r2, #32
	uxth	r2, r2
	strh	r2, [r3, #26]	@ movhi
	.loc 1 755 0
	mov	r3, #1024
	movt	r3, 16386
	mov	r2, #1024
	movt	r2, 16386
	ldrh	r2, [r2, #26]
	orr	r2, r2, #2
	uxth	r2, r2
	strh	r2, [r3, #26]	@ movhi
	.loc 1 756 0
	mov	r3, #0
	movt	r3, 16386
	mov	r2, #0
	movt	r2, 16386
	ldrh	r2, [r2, #26]
	orr	r2, r2, #2
	uxth	r2, r2
	strh	r2, [r3, #26]	@ movhi
	.loc 1 757 0
	mov	r3, #1024
	movt	r3, 16386
	mov	r2, #1024
	movt	r2, 16386
	ldrh	r2, [r2, #24]
	orr	r2, r2, #32
	uxth	r2, r2
	strh	r2, [r3, #24]	@ movhi
	.loc 1 758 0
	mov	r3, #1024
	movt	r3, 16386
	mov	r2, #1024
	movt	r2, 16386
	ldrh	r2, [r2, #24]
	orr	r2, r2, #2048
	uxth	r2, r2
	strh	r2, [r3, #24]	@ movhi
	.loc 1 759 0
	mov	r3, #2048
	movt	r3, 16386
	mov	r2, #2048
	movt	r2, 16386
	ldrh	r2, [r2, #26]
	orr	r2, r2, #4
	uxth	r2, r2
	strh	r2, [r3, #26]	@ movhi
	.loc 1 760 0
	mov	r3, #2048
	movt	r3, 16386
	mov	r2, #2048
	movt	r2, 16386
	ldrh	r2, [r2, #24]
	orr	r2, r2, #16
	uxth	r2, r2
	strh	r2, [r3, #24]	@ movhi
	.loc 1 761 0
	mov	r3, #1024
	movt	r3, 16386
	mov	r2, #1024
	movt	r2, 16386
	ldrh	r2, [r2, #24]
	orr	r2, r2, #1
	uxth	r2, r2
	strh	r2, [r3, #24]	@ movhi
	.loc 1 762 0
	b	.L58
.L67:
	.loc 1 764 0
	mov	r3, #2048
	movt	r3, 16386
	mov	r2, #2048
	movt	r2, 16386
	ldrh	r2, [r2, #26]
	orr	r2, r2, #32
	uxth	r2, r2
	strh	r2, [r3, #26]	@ movhi
	.loc 1 765 0
	mov	r3, #1024
	movt	r3, 16386
	mov	r2, #1024
	movt	r2, 16386
	ldrh	r2, [r2, #26]
	orr	r2, r2, #2
	uxth	r2, r2
	strh	r2, [r3, #26]	@ movhi
	.loc 1 766 0
	mov	r3, #0
	movt	r3, 16386
	mov	r2, #0
	movt	r2, 16386
	ldrh	r2, [r2, #26]
	orr	r2, r2, #2
	uxth	r2, r2
	strh	r2, [r3, #26]	@ movhi
	.loc 1 767 0
	mov	r3, #1024
	movt	r3, 16386
	mov	r2, #1024
	movt	r2, 16386
	ldrh	r2, [r2, #26]
	orr	r2, r2, #32
	uxth	r2, r2
	strh	r2, [r3, #26]	@ movhi
	.loc 1 768 0
	mov	r3, #1024
	movt	r3, 16386
	mov	r2, #1024
	movt	r2, 16386
	ldrh	r2, [r2, #26]
	orr	r2, r2, #2048
	uxth	r2, r2
	strh	r2, [r3, #26]	@ movhi
	.loc 1 769 0
	mov	r3, #2048
	movt	r3, 16386
	mov	r2, #2048
	movt	r2, 16386
	ldrh	r2, [r2, #26]
	orr	r2, r2, #4
	uxth	r2, r2
	strh	r2, [r3, #26]	@ movhi
	.loc 1 770 0
	mov	r3, #2048
	movt	r3, 16386
	mov	r2, #2048
	movt	r2, 16386
	ldrh	r2, [r2, #26]
	orr	r2, r2, #16
	uxth	r2, r2
	strh	r2, [r3, #26]	@ movhi
	.loc 1 771 0
	mov	r3, #1024
	movt	r3, 16386
	mov	r2, #1024
	movt	r2, 16386
	ldrh	r2, [r2, #24]
	orr	r2, r2, #1
	uxth	r2, r2
	strh	r2, [r3, #24]	@ movhi
	.loc 1 772 0
	b	.L58
.L68:
	.loc 1 774 0
	mov	r3, #2048
	movt	r3, 16386
	mov	r2, #2048
	movt	r2, 16386
	ldrh	r2, [r2, #26]
	orr	r2, r2, #32
	uxth	r2, r2
	strh	r2, [r3, #26]	@ movhi
	.loc 1 775 0
	mov	r3, #1024
	movt	r3, 16386
	mov	r2, #1024
	movt	r2, 16386
	ldrh	r2, [r2, #26]
	orr	r2, r2, #2
	uxth	r2, r2
	strh	r2, [r3, #26]	@ movhi
	.loc 1 776 0
	mov	r3, #0
	movt	r3, 16386
	mov	r2, #0
	movt	r2, 16386
	ldrh	r2, [r2, #26]
	orr	r2, r2, #2
	uxth	r2, r2
	strh	r2, [r3, #26]	@ movhi
	.loc 1 777 0
	mov	r3, #1024
	movt	r3, 16386
	mov	r2, #1024
	movt	r2, 16386
	ldrh	r2, [r2, #24]
	orr	r2, r2, #32
	uxth	r2, r2
	strh	r2, [r3, #24]	@ movhi
	.loc 1 778 0
	mov	r3, #1024
	movt	r3, 16386
	mov	r2, #1024
	movt	r2, 16386
	ldrh	r2, [r2, #24]
	orr	r2, r2, #2048
	uxth	r2, r2
	strh	r2, [r3, #24]	@ movhi
	.loc 1 779 0
	mov	r3, #2048
	movt	r3, 16386
	mov	r2, #2048
	movt	r2, 16386
	ldrh	r2, [r2, #26]
	orr	r2, r2, #4
	uxth	r2, r2
	strh	r2, [r3, #26]	@ movhi
	.loc 1 780 0
	mov	r3, #2048
	movt	r3, 16386
	mov	r2, #2048
	movt	r2, 16386
	ldrh	r2, [r2, #26]
	orr	r2, r2, #16
	uxth	r2, r2
	strh	r2, [r3, #26]	@ movhi
	.loc 1 781 0
	mov	r3, #1024
	movt	r3, 16386
	mov	r2, #1024
	movt	r2, 16386
	ldrh	r2, [r2, #24]
	orr	r2, r2, #1
	uxth	r2, r2
	strh	r2, [r3, #24]	@ movhi
	.loc 1 782 0
	b	.L58
.L69:
	.loc 1 784 0
	mov	r3, #2048
	movt	r3, 16386
	mov	r2, #2048
	movt	r2, 16386
	ldrh	r2, [r2, #24]
	orr	r2, r2, #32
	uxth	r2, r2
	strh	r2, [r3, #24]	@ movhi
	.loc 1 785 0
	mov	r3, #1024
	movt	r3, 16386
	mov	r2, #1024
	movt	r2, 16386
	ldrh	r2, [r2, #24]
	orr	r2, r2, #2
	uxth	r2, r2
	strh	r2, [r3, #24]	@ movhi
	.loc 1 786 0
	mov	r3, #0
	movt	r3, 16386
	mov	r2, #0
	movt	r2, 16386
	ldrh	r2, [r2, #24]
	orr	r2, r2, #2
	uxth	r2, r2
	strh	r2, [r3, #24]	@ movhi
	.loc 1 787 0
	mov	r3, #1024
	movt	r3, 16386
	mov	r2, #1024
	movt	r2, 16386
	ldrh	r2, [r2, #24]
	orr	r2, r2, #32
	uxth	r2, r2
	strh	r2, [r3, #24]	@ movhi
	.loc 1 788 0
	mov	r3, #1024
	movt	r3, 16386
	mov	r2, #1024
	movt	r2, 16386
	ldrh	r2, [r2, #24]
	orr	r2, r2, #2048
	uxth	r2, r2
	strh	r2, [r3, #24]	@ movhi
	.loc 1 789 0
	mov	r3, #2048
	movt	r3, 16386
	mov	r2, #2048
	movt	r2, 16386
	ldrh	r2, [r2, #24]
	orr	r2, r2, #4
	uxth	r2, r2
	strh	r2, [r3, #24]	@ movhi
	.loc 1 790 0
	mov	r3, #2048
	movt	r3, 16386
	mov	r2, #2048
	movt	r2, 16386
	ldrh	r2, [r2, #24]
	orr	r2, r2, #16
	uxth	r2, r2
	strh	r2, [r3, #24]	@ movhi
	.loc 1 791 0
	mov	r3, #1024
	movt	r3, 16386
	mov	r2, #1024
	movt	r2, 16386
	ldrh	r2, [r2, #24]
	orr	r2, r2, #1
	uxth	r2, r2
	strh	r2, [r3, #24]	@ movhi
	.loc 1 792 0
	b	.L58
.L70:
	.loc 1 794 0
	mov	r3, #2048
	movt	r3, 16386
	mov	r2, #2048
	movt	r2, 16386
	ldrh	r2, [r2, #26]
	orr	r2, r2, #32
	uxth	r2, r2
	strh	r2, [r3, #26]	@ movhi
	.loc 1 795 0
	mov	r3, #1024
	movt	r3, 16386
	mov	r2, #1024
	movt	r2, 16386
	ldrh	r2, [r2, #26]
	orr	r2, r2, #2
	uxth	r2, r2
	strh	r2, [r3, #26]	@ movhi
	.loc 1 796 0
	mov	r3, #0
	movt	r3, 16386
	mov	r2, #0
	movt	r2, 16386
	ldrh	r2, [r2, #24]
	orr	r2, r2, #2
	uxth	r2, r2
	strh	r2, [r3, #24]	@ movhi
	.loc 1 797 0
	mov	r3, #1024
	movt	r3, 16386
	mov	r2, #1024
	movt	r2, 16386
	ldrh	r2, [r2, #24]
	orr	r2, r2, #32
	uxth	r2, r2
	strh	r2, [r3, #24]	@ movhi
	.loc 1 798 0
	mov	r3, #1024
	movt	r3, 16386
	mov	r2, #1024
	movt	r2, 16386
	ldrh	r2, [r2, #24]
	orr	r2, r2, #2048
	uxth	r2, r2
	strh	r2, [r3, #24]	@ movhi
	.loc 1 799 0
	mov	r3, #2048
	movt	r3, 16386
	mov	r2, #2048
	movt	r2, 16386
	ldrh	r2, [r2, #24]
	orr	r2, r2, #4
	uxth	r2, r2
	strh	r2, [r3, #24]	@ movhi
	.loc 1 800 0
	mov	r3, #2048
	movt	r3, 16386
	mov	r2, #2048
	movt	r2, 16386
	ldrh	r2, [r2, #24]
	orr	r2, r2, #16
	uxth	r2, r2
	strh	r2, [r3, #24]	@ movhi
	.loc 1 801 0
	mov	r3, #1024
	movt	r3, 16386
	mov	r2, #1024
	movt	r2, 16386
	ldrh	r2, [r2, #24]
	orr	r2, r2, #1
	uxth	r2, r2
	strh	r2, [r3, #24]	@ movhi
	.loc 1 802 0
	b	.L58
.L71:
	.loc 1 804 0
	mov	r3, #2048
	movt	r3, 16386
	mov	r2, #2048
	movt	r2, 16386
	ldrh	r2, [r2, #24]
	orr	r2, r2, #32
	uxth	r2, r2
	strh	r2, [r3, #24]	@ movhi
	.loc 1 805 0
	mov	r3, #1024
	movt	r3, 16386
	mov	r2, #1024
	movt	r2, 16386
	ldrh	r2, [r2, #24]
	orr	r2, r2, #2
	uxth	r2, r2
	strh	r2, [r3, #24]	@ movhi
	.loc 1 806 0
	mov	r3, #0
	movt	r3, 16386
	mov	r2, #0
	movt	r2, 16386
	ldrh	r2, [r2, #26]
	orr	r2, r2, #2
	uxth	r2, r2
	strh	r2, [r3, #26]	@ movhi
	.loc 1 807 0
	mov	r3, #1024
	movt	r3, 16386
	mov	r2, #1024
	movt	r2, 16386
	ldrh	r2, [r2, #24]
	orr	r2, r2, #32
	uxth	r2, r2
	strh	r2, [r3, #24]	@ movhi
	.loc 1 808 0
	mov	r3, #1024
	movt	r3, 16386
	mov	r2, #1024
	movt	r2, 16386
	ldrh	r2, [r2, #24]
	orr	r2, r2, #2048
	uxth	r2, r2
	strh	r2, [r3, #24]	@ movhi
	.loc 1 809 0
	mov	r3, #2048
	movt	r3, 16386
	mov	r2, #2048
	movt	r2, 16386
	ldrh	r2, [r2, #24]
	orr	r2, r2, #4
	uxth	r2, r2
	strh	r2, [r3, #24]	@ movhi
	.loc 1 810 0
	mov	r3, #2048
	movt	r3, 16386
	mov	r2, #2048
	movt	r2, 16386
	ldrh	r2, [r2, #24]
	orr	r2, r2, #16
	uxth	r2, r2
	strh	r2, [r3, #24]	@ movhi
	.loc 1 811 0
	mov	r3, #1024
	movt	r3, 16386
	mov	r2, #1024
	movt	r2, 16386
	ldrh	r2, [r2, #24]
	orr	r2, r2, #1
	uxth	r2, r2
	strh	r2, [r3, #24]	@ movhi
	.loc 1 812 0
	b	.L58
.L72:
	.loc 1 814 0
	mov	r3, #2048
	movt	r3, 16386
	mov	r2, #2048
	movt	r2, 16386
	ldrh	r2, [r2, #26]
	orr	r2, r2, #32
	uxth	r2, r2
	strh	r2, [r3, #26]	@ movhi
	.loc 1 815 0
	mov	r3, #1024
	movt	r3, 16386
	mov	r2, #1024
	movt	r2, 16386
	ldrh	r2, [r2, #26]
	orr	r2, r2, #2
	uxth	r2, r2
	strh	r2, [r3, #26]	@ movhi
	.loc 1 816 0
	mov	r3, #0
	movt	r3, 16386
	mov	r2, #0
	movt	r2, 16386
	ldrh	r2, [r2, #26]
	orr	r2, r2, #2
	uxth	r2, r2
	strh	r2, [r3, #26]	@ movhi
	.loc 1 817 0
	mov	r3, #1024
	movt	r3, 16386
	mov	r2, #1024
	movt	r2, 16386
	ldrh	r2, [r2, #24]
	orr	r2, r2, #32
	uxth	r2, r2
	strh	r2, [r3, #24]	@ movhi
	.loc 1 818 0
	mov	r3, #1024
	movt	r3, 16386
	mov	r2, #1024
	movt	r2, 16386
	ldrh	r2, [r2, #24]
	orr	r2, r2, #2048
	uxth	r2, r2
	strh	r2, [r3, #24]	@ movhi
	.loc 1 819 0
	mov	r3, #2048
	movt	r3, 16386
	mov	r2, #2048
	movt	r2, 16386
	ldrh	r2, [r2, #24]
	orr	r2, r2, #4
	uxth	r2, r2
	strh	r2, [r3, #24]	@ movhi
	.loc 1 820 0
	mov	r3, #2048
	movt	r3, 16386
	mov	r2, #2048
	movt	r2, 16386
	ldrh	r2, [r2, #24]
	orr	r2, r2, #16
	uxth	r2, r2
	strh	r2, [r3, #24]	@ movhi
	.loc 1 821 0
	mov	r3, #1024
	movt	r3, 16386
	mov	r2, #1024
	movt	r2, 16386
	ldrh	r2, [r2, #24]
	orr	r2, r2, #1
	uxth	r2, r2
	strh	r2, [r3, #24]	@ movhi
	.loc 1 822 0
	b	.L58
.L73:
	.loc 1 824 0
	mov	r3, #2048
	movt	r3, 16386
	mov	r2, #2048
	movt	r2, 16386
	ldrh	r2, [r2, #26]
	orr	r2, r2, #32
	uxth	r2, r2
	strh	r2, [r3, #26]	@ movhi
	.loc 1 825 0
	mov	r3, #1024
	movt	r3, 16386
	mov	r2, #1024
	movt	r2, 16386
	ldrh	r2, [r2, #24]
	orr	r2, r2, #2
	uxth	r2, r2
	strh	r2, [r3, #24]	@ movhi
	.loc 1 826 0
	mov	r3, #0
	movt	r3, 16386
	mov	r2, #0
	movt	r2, 16386
	ldrh	r2, [r2, #24]
	orr	r2, r2, #2
	uxth	r2, r2
	strh	r2, [r3, #24]	@ movhi
	.loc 1 827 0
	mov	r3, #1024
	movt	r3, 16386
	mov	r2, #1024
	movt	r2, 16386
	ldrh	r2, [r2, #26]
	orr	r2, r2, #32
	uxth	r2, r2
	strh	r2, [r3, #26]	@ movhi
	.loc 1 828 0
	mov	r3, #1024
	movt	r3, 16386
	mov	r2, #1024
	movt	r2, 16386
	ldrh	r2, [r2, #26]
	orr	r2, r2, #2048
	uxth	r2, r2
	strh	r2, [r3, #26]	@ movhi
	.loc 1 829 0
	mov	r3, #2048
	movt	r3, 16386
	mov	r2, #2048
	movt	r2, 16386
	ldrh	r2, [r2, #26]
	orr	r2, r2, #4
	uxth	r2, r2
	strh	r2, [r3, #26]	@ movhi
	.loc 1 830 0
	mov	r3, #2048
	movt	r3, 16386
	mov	r2, #2048
	movt	r2, 16386
	ldrh	r2, [r2, #26]
	orr	r2, r2, #16
	uxth	r2, r2
	strh	r2, [r3, #26]	@ movhi
	.loc 1 831 0
	mov	r3, #1024
	movt	r3, 16386
	mov	r2, #1024
	movt	r2, 16386
	ldrh	r2, [r2, #24]
	orr	r2, r2, #1
	uxth	r2, r2
	strh	r2, [r3, #24]	@ movhi
	.loc 1 832 0
	b	.L58
.L74:
	.loc 1 834 0
	mov	r3, #2048
	movt	r3, 16386
	mov	r2, #2048
	movt	r2, 16386
	ldrh	r2, [r2, #24]
	orr	r2, r2, #32
	uxth	r2, r2
	strh	r2, [r3, #24]	@ movhi
	.loc 1 835 0
	mov	r3, #1024
	movt	r3, 16386
	mov	r2, #1024
	movt	r2, 16386
	ldrh	r2, [r2, #24]
	orr	r2, r2, #2
	uxth	r2, r2
	strh	r2, [r3, #24]	@ movhi
	.loc 1 836 0
	mov	r3, #0
	movt	r3, 16386
	mov	r2, #0
	movt	r2, 16386
	ldrh	r2, [r2, #26]
	orr	r2, r2, #2
	uxth	r2, r2
	strh	r2, [r3, #26]	@ movhi
	.loc 1 837 0
	mov	r3, #1024
	movt	r3, 16386
	mov	r2, #1024
	movt	r2, 16386
	ldrh	r2, [r2, #24]
	orr	r2, r2, #32
	uxth	r2, r2
	strh	r2, [r3, #24]	@ movhi
	.loc 1 838 0
	mov	r3, #1024
	movt	r3, 16386
	mov	r2, #1024
	movt	r2, 16386
	ldrh	r2, [r2, #26]
	orr	r2, r2, #2048
	uxth	r2, r2
	strh	r2, [r3, #26]	@ movhi
	.loc 1 839 0
	mov	r3, #2048
	movt	r3, 16386
	mov	r2, #2048
	movt	r2, 16386
	ldrh	r2, [r2, #26]
	orr	r2, r2, #4
	uxth	r2, r2
	strh	r2, [r3, #26]	@ movhi
	.loc 1 840 0
	mov	r3, #2048
	movt	r3, 16386
	mov	r2, #2048
	movt	r2, 16386
	ldrh	r2, [r2, #26]
	orr	r2, r2, #16
	uxth	r2, r2
	strh	r2, [r3, #26]	@ movhi
	.loc 1 841 0
	mov	r3, #1024
	movt	r3, 16386
	mov	r2, #1024
	movt	r2, 16386
	ldrh	r2, [r2, #24]
	orr	r2, r2, #1
	uxth	r2, r2
	strh	r2, [r3, #24]	@ movhi
	.loc 1 842 0
	b	.L58
.L75:
	.loc 1 844 0
	mov	r3, #2048
	movt	r3, 16386
	mov	r2, #2048
	movt	r2, 16386
	ldrh	r2, [r2, #24]
	orr	r2, r2, #32
	uxth	r2, r2
	strh	r2, [r3, #24]	@ movhi
	.loc 1 845 0
	mov	r3, #1024
	movt	r3, 16386
	mov	r2, #1024
	movt	r2, 16386
	ldrh	r2, [r2, #24]
	orr	r2, r2, #2
	uxth	r2, r2
	strh	r2, [r3, #24]	@ movhi
	.loc 1 846 0
	mov	r3, #0
	movt	r3, 16386
	mov	r2, #0
	movt	r2, 16386
	ldrh	r2, [r2, #26]
	orr	r2, r2, #2
	uxth	r2, r2
	strh	r2, [r3, #26]	@ movhi
	.loc 1 847 0
	mov	r3, #1024
	movt	r3, 16386
	mov	r2, #1024
	movt	r2, 16386
	ldrh	r2, [r2, #24]
	orr	r2, r2, #32
	uxth	r2, r2
	strh	r2, [r3, #24]	@ movhi
	.loc 1 848 0
	mov	r3, #1024
	movt	r3, 16386
	mov	r2, #1024
	movt	r2, 16386
	ldrh	r2, [r2, #26]
	orr	r2, r2, #2048
	uxth	r2, r2
	strh	r2, [r3, #26]	@ movhi
	.loc 1 849 0
	mov	r3, #2048
	movt	r3, 16386
	mov	r2, #2048
	movt	r2, 16386
	ldrh	r2, [r2, #24]
	orr	r2, r2, #4
	uxth	r2, r2
	strh	r2, [r3, #24]	@ movhi
	.loc 1 850 0
	mov	r3, #2048
	movt	r3, 16386
	mov	r2, #2048
	movt	r2, 16386
	ldrh	r2, [r2, #26]
	orr	r2, r2, #16
	uxth	r2, r2
	strh	r2, [r3, #26]	@ movhi
	.loc 1 851 0
	mov	r3, #1024
	movt	r3, 16386
	mov	r2, #1024
	movt	r2, 16386
	ldrh	r2, [r2, #24]
	orr	r2, r2, #1
	uxth	r2, r2
	strh	r2, [r3, #24]	@ movhi
	.loc 1 852 0
	b	.L58
.L76:
	.loc 1 854 0
	mov	r3, #2048
	movt	r3, 16386
	mov	r2, #2048
	movt	r2, 16386
	ldrh	r2, [r2, #24]
	orr	r2, r2, #32
	uxth	r2, r2
	strh	r2, [r3, #24]	@ movhi
	.loc 1 855 0
	mov	r3, #1024
	movt	r3, 16386
	mov	r2, #1024
	movt	r2, 16386
	ldrh	r2, [r2, #24]
	orr	r2, r2, #2
	uxth	r2, r2
	strh	r2, [r3, #24]	@ movhi
	.loc 1 856 0
	mov	r3, #0
	movt	r3, 16386
	mov	r2, #0
	movt	r2, 16386
	ldrh	r2, [r2, #24]
	orr	r2, r2, #2
	uxth	r2, r2
	strh	r2, [r3, #24]	@ movhi
	.loc 1 857 0
	mov	r3, #1024
	movt	r3, 16386
	mov	r2, #1024
	movt	r2, 16386
	ldrh	r2, [r2, #24]
	orr	r2, r2, #32
	uxth	r2, r2
	strh	r2, [r3, #24]	@ movhi
	.loc 1 858 0
	mov	r3, #1024
	movt	r3, 16386
	mov	r2, #1024
	movt	r2, 16386
	ldrh	r2, [r2, #24]
	orr	r2, r2, #2048
	uxth	r2, r2
	strh	r2, [r3, #24]	@ movhi
	.loc 1 859 0
	mov	r3, #2048
	movt	r3, 16386
	mov	r2, #2048
	movt	r2, 16386
	ldrh	r2, [r2, #24]
	orr	r2, r2, #4
	uxth	r2, r2
	strh	r2, [r3, #24]	@ movhi
	.loc 1 860 0
	mov	r3, #2048
	movt	r3, 16386
	mov	r2, #2048
	movt	r2, 16386
	ldrh	r2, [r2, #26]
	orr	r2, r2, #16
	uxth	r2, r2
	strh	r2, [r3, #26]	@ movhi
	.loc 1 861 0
	mov	r3, #1024
	movt	r3, 16386
	mov	r2, #1024
	movt	r2, 16386
	ldrh	r2, [r2, #24]
	orr	r2, r2, #1
	uxth	r2, r2
	strh	r2, [r3, #24]	@ movhi
	.loc 1 862 0
	nop
.L58:
	.loc 1 867 0
	mov	r3, #3072
	movt	r3, 16386
	mov	r2, #3072
	movt	r2, 16386
	ldrh	r2, [r2, #26]
	orr	r2, r2, #4
	uxth	r2, r2
	strh	r2, [r3, #26]	@ movhi
	.loc 1 868 0
	mov	r3, #3072
	movt	r3, 16386
	mov	r2, #3072
	movt	r2, 16386
	ldrh	r2, [r2, #24]
	orr	r2, r2, #4
	uxth	r2, r2
	strh	r2, [r3, #24]	@ movhi
	.loc 1 871 0
	mov	r3, #1024
	movt	r3, 16386
	mov	r2, #1024
	movt	r2, 16386
	ldrh	r2, [r2, #24]
	orr	r2, r2, #16
	uxth	r2, r2
	strh	r2, [r3, #24]	@ movhi
	.loc 1 874 0
	ldr	r3, [r7, #4]
	add	r3, r3, #-1
	cmp	r3, #4
	bhi	.L78
	adr	r2, .L84
	ldr	pc, [r2, r3, lsl #2]
	.align	2
.L84:
	.word	.L79+1
	.word	.L80+1
	.word	.L81+1
	.word	.L82+1
	.word	.L83+1
.L79:
	.loc 1 876 0
	mov	r3, #2048
	movt	r3, 16386
	mov	r2, #2048
	movt	r2, 16386
	ldrh	r2, [r2, #26]
	orr	r2, r2, #4
	uxth	r2, r2
	strh	r2, [r3, #26]	@ movhi
	.loc 1 877 0
	mov	r3, #0
	movt	r3, 16386
	mov	r2, #0
	movt	r2, 16386
	ldrh	r2, [r2, #24]
	orr	r2, r2, #2
	uxth	r2, r2
	strh	r2, [r3, #24]	@ movhi
	.loc 1 878 0
	mov	r3, #2048
	movt	r3, 16386
	mov	r2, #2048
	movt	r2, 16386
	ldrh	r2, [r2, #24]
	orr	r2, r2, #16
	uxth	r2, r2
	strh	r2, [r3, #24]	@ movhi
	.loc 1 879 0
	mov	r3, #1024
	movt	r3, 16386
	mov	r2, #1024
	movt	r2, 16386
	ldrh	r2, [r2, #24]
	orr	r2, r2, #2
	uxth	r2, r2
	strh	r2, [r3, #24]	@ movhi
	.loc 1 880 0
	mov	r3, #2048
	movt	r3, 16386
	mov	r2, #2048
	movt	r2, 16386
	ldrh	r2, [r2, #24]
	orr	r2, r2, #32
	uxth	r2, r2
	strh	r2, [r3, #24]	@ movhi
	.loc 1 881 0
	mov	r3, #1024
	movt	r3, 16386
	mov	r2, #1024
	movt	r2, 16386
	ldrh	r2, [r2, #24]
	orr	r2, r2, #1
	uxth	r2, r2
	strh	r2, [r3, #24]	@ movhi
	.loc 1 882 0
	mov	r3, #1024
	movt	r3, 16386
	mov	r2, #1024
	movt	r2, 16386
	ldrh	r2, [r2, #24]
	orr	r2, r2, #2048
	uxth	r2, r2
	strh	r2, [r3, #24]	@ movhi
	.loc 1 883 0
	b	.L78
.L80:
	.loc 1 885 0
	mov	r3, #2048
	movt	r3, 16386
	mov	r2, #2048
	movt	r2, 16386
	ldrh	r2, [r2, #24]
	orr	r2, r2, #4
	uxth	r2, r2
	strh	r2, [r3, #24]	@ movhi
	.loc 1 886 0
	mov	r3, #0
	movt	r3, 16386
	mov	r2, #0
	movt	r2, 16386
	ldrh	r2, [r2, #26]
	orr	r2, r2, #2
	uxth	r2, r2
	strh	r2, [r3, #26]	@ movhi
	.loc 1 887 0
	mov	r3, #2048
	movt	r3, 16386
	mov	r2, #2048
	movt	r2, 16386
	ldrh	r2, [r2, #24]
	orr	r2, r2, #16
	uxth	r2, r2
	strh	r2, [r3, #24]	@ movhi
	.loc 1 888 0
	mov	r3, #1024
	movt	r3, 16386
	mov	r2, #1024
	movt	r2, 16386
	ldrh	r2, [r2, #24]
	orr	r2, r2, #2
	uxth	r2, r2
	strh	r2, [r3, #24]	@ movhi
	.loc 1 889 0
	mov	r3, #2048
	movt	r3, 16386
	mov	r2, #2048
	movt	r2, 16386
	ldrh	r2, [r2, #24]
	orr	r2, r2, #32
	uxth	r2, r2
	strh	r2, [r3, #24]	@ movhi
	.loc 1 890 0
	mov	r3, #1024
	movt	r3, 16386
	mov	r2, #1024
	movt	r2, 16386
	ldrh	r2, [r2, #24]
	orr	r2, r2, #1
	uxth	r2, r2
	strh	r2, [r3, #24]	@ movhi
	.loc 1 891 0
	mov	r3, #1024
	movt	r3, 16386
	mov	r2, #1024
	movt	r2, 16386
	ldrh	r2, [r2, #24]
	orr	r2, r2, #2048
	uxth	r2, r2
	strh	r2, [r3, #24]	@ movhi
	.loc 1 892 0
	b	.L78
.L81:
	.loc 1 894 0
	mov	r3, #2048
	movt	r3, 16386
	mov	r2, #2048
	movt	r2, 16386
	ldrh	r2, [r2, #24]
	orr	r2, r2, #4
	uxth	r2, r2
	strh	r2, [r3, #24]	@ movhi
	.loc 1 895 0
	mov	r3, #0
	movt	r3, 16386
	mov	r2, #0
	movt	r2, 16386
	ldrh	r2, [r2, #24]
	orr	r2, r2, #2
	uxth	r2, r2
	strh	r2, [r3, #24]	@ movhi
	.loc 1 896 0
	mov	r3, #2048
	movt	r3, 16386
	mov	r2, #2048
	movt	r2, 16386
	ldrh	r2, [r2, #26]
	orr	r2, r2, #16
	uxth	r2, r2
	strh	r2, [r3, #26]	@ movhi
	.loc 1 897 0
	mov	r3, #1024
	movt	r3, 16386
	mov	r2, #1024
	movt	r2, 16386
	ldrh	r2, [r2, #24]
	orr	r2, r2, #2
	uxth	r2, r2
	strh	r2, [r3, #24]	@ movhi
	.loc 1 898 0
	mov	r3, #2048
	movt	r3, 16386
	mov	r2, #2048
	movt	r2, 16386
	ldrh	r2, [r2, #24]
	orr	r2, r2, #32
	uxth	r2, r2
	strh	r2, [r3, #24]	@ movhi
	.loc 1 899 0
	mov	r3, #1024
	movt	r3, 16386
	mov	r2, #1024
	movt	r2, 16386
	ldrh	r2, [r2, #24]
	orr	r2, r2, #1
	uxth	r2, r2
	strh	r2, [r3, #24]	@ movhi
	.loc 1 900 0
	mov	r3, #1024
	movt	r3, 16386
	mov	r2, #1024
	movt	r2, 16386
	ldrh	r2, [r2, #24]
	orr	r2, r2, #2048
	uxth	r2, r2
	strh	r2, [r3, #24]	@ movhi
	.loc 1 901 0
	b	.L78
.L82:
	.loc 1 903 0
	mov	r3, #2048
	movt	r3, 16386
	mov	r2, #2048
	movt	r2, 16386
	ldrh	r2, [r2, #24]
	orr	r2, r2, #4
	uxth	r2, r2
	strh	r2, [r3, #24]	@ movhi
	.loc 1 904 0
	mov	r3, #0
	movt	r3, 16386
	mov	r2, #0
	movt	r2, 16386
	ldrh	r2, [r2, #24]
	orr	r2, r2, #2
	uxth	r2, r2
	strh	r2, [r3, #24]	@ movhi
	.loc 1 905 0
	mov	r3, #2048
	movt	r3, 16386
	mov	r2, #2048
	movt	r2, 16386
	ldrh	r2, [r2, #24]
	orr	r2, r2, #16
	uxth	r2, r2
	strh	r2, [r3, #24]	@ movhi
	.loc 1 906 0
	mov	r3, #1024
	movt	r3, 16386
	mov	r2, #1024
	movt	r2, 16386
	ldrh	r2, [r2, #26]
	orr	r2, r2, #2
	uxth	r2, r2
	strh	r2, [r3, #26]	@ movhi
	.loc 1 907 0
	mov	r3, #2048
	movt	r3, 16386
	mov	r2, #2048
	movt	r2, 16386
	ldrh	r2, [r2, #24]
	orr	r2, r2, #32
	uxth	r2, r2
	strh	r2, [r3, #24]	@ movhi
	.loc 1 908 0
	mov	r3, #1024
	movt	r3, 16386
	mov	r2, #1024
	movt	r2, 16386
	ldrh	r2, [r2, #24]
	orr	r2, r2, #1
	uxth	r2, r2
	strh	r2, [r3, #24]	@ movhi
	.loc 1 909 0
	mov	r3, #1024
	movt	r3, 16386
	mov	r2, #1024
	movt	r2, 16386
	ldrh	r2, [r2, #24]
	orr	r2, r2, #2048
	uxth	r2, r2
	strh	r2, [r3, #24]	@ movhi
	.loc 1 910 0
	b	.L78
.L83:
	.loc 1 912 0
	mov	r3, #2048
	movt	r3, 16386
	mov	r2, #2048
	movt	r2, 16386
	ldrh	r2, [r2, #24]
	orr	r2, r2, #4
	uxth	r2, r2
	strh	r2, [r3, #24]	@ movhi
	.loc 1 913 0
	mov	r3, #0
	movt	r3, 16386
	mov	r2, #0
	movt	r2, 16386
	ldrh	r2, [r2, #24]
	orr	r2, r2, #2
	uxth	r2, r2
	strh	r2, [r3, #24]	@ movhi
	.loc 1 914 0
	mov	r3, #2048
	movt	r3, 16386
	mov	r2, #2048
	movt	r2, 16386
	ldrh	r2, [r2, #24]
	orr	r2, r2, #16
	uxth	r2, r2
	strh	r2, [r3, #24]	@ movhi
	.loc 1 915 0
	mov	r3, #1024
	movt	r3, 16386
	mov	r2, #1024
	movt	r2, 16386
	ldrh	r2, [r2, #24]
	orr	r2, r2, #2
	uxth	r2, r2
	strh	r2, [r3, #24]	@ movhi
	.loc 1 916 0
	mov	r3, #2048
	movt	r3, 16386
	mov	r2, #2048
	movt	r2, 16386
	ldrh	r2, [r2, #26]
	orr	r2, r2, #32
	uxth	r2, r2
	strh	r2, [r3, #26]	@ movhi
	.loc 1 917 0
	mov	r3, #1024
	movt	r3, 16386
	mov	r2, #1024
	movt	r2, 16386
	ldrh	r2, [r2, #24]
	orr	r2, r2, #1
	uxth	r2, r2
	strh	r2, [r3, #24]	@ movhi
	.loc 1 918 0
	mov	r3, #1024
	movt	r3, 16386
	mov	r2, #1024
	movt	r2, 16386
	ldrh	r2, [r2, #24]
	orr	r2, r2, #2048
	uxth	r2, r2
	strh	r2, [r3, #24]	@ movhi
	.loc 1 919 0
	nop
.L78:
	.loc 1 922 0
	mov	r3, #2048
	movt	r3, 16386
	mov	r2, #2048
	movt	r2, 16386
	ldrh	r2, [r2, #26]
	orr	r2, r2, #2048
	uxth	r2, r2
	strh	r2, [r3, #26]	@ movhi
	.loc 1 923 0
	mov	r3, #2048
	movt	r3, 16386
	mov	r2, #2048
	movt	r2, 16386
	ldrh	r2, [r2, #24]
	orr	r2, r2, #2048
	uxth	r2, r2
	strh	r2, [r3, #24]	@ movhi
	.loc 1 926 0
	mov	r3, #1024
	movt	r3, 16386
	mov	r2, #1024
	movt	r2, 16386
	ldrh	r2, [r2, #26]
	orr	r2, r2, #16
	uxth	r2, r2
	strh	r2, [r3, #26]	@ movhi
	.loc 1 929 0
	mov	r3, #2048
	movt	r3, 16386
	mov	r2, #2048
	movt	r2, 16386
	ldrh	r2, [r2, #26]
	orr	r2, r2, #2
	uxth	r2, r2
	strh	r2, [r3, #26]	@ movhi
	.loc 1 930 0
	mov	r0, r3
	add	r7, r7, #12
	mov	sp, r7
	pop	{r7}
	bx	lr
	.cfi_endproc
.LFE14:
	.size	seg7_update, .-seg7_update
	.align	2
	.global	main
	.thumb
	.thumb_func
	.type	main, %function
main:
.LFB15:
	.loc 1 936 0
	.cfi_startproc
	@ args = 0, pretend = 0, frame = 16
	@ frame_needed = 1, uses_anonymous_args = 0
	push	{r7, lr}
.LCFI37:
	.cfi_def_cfa_offset 8
	.cfi_offset 7, -8
	.cfi_offset 14, -4
	sub	sp, sp, #16
.LCFI38:
	.cfi_def_cfa_offset 24
	add	r7, sp, #0
.LCFI39:
	.cfi_def_cfa_register 7
	.loc 1 945 0
	mov	r3, #-1
	str	r3, [r7, #12]
	.loc 1 946 0
	mov	r3, #1
	str	r3, [r7, #8]
	.loc 1 947 0
	mov	r3, #0
	str	r3, [r7, #0]
	.loc 1 953 0
	movw	r3, #:lower16:SystemCoreClock
	movt	r3, #:upper16:SystemCoreClock
	mov	r2, #31232
	movt	r2, 2563
	str	r2, [r3, #0]
	.loc 1 958 0
	bl	SystemCoreClockUpdate
	.loc 1 959 0
	movw	r3, #:lower16:SystemCoreClock
	movt	r3, #:upper16:SystemCoreClock
	ldr	r2, [r3, #0]
	movw	r3, #19923
	movt	r3, 4194
	umull	r1, r3, r3, r2
	lsr	r3, r3, #6
	mov	r0, r3
	bl	SysTick_Config
	mov	r3, r0
	cmp	r3, #0
	beq	.L86
.L87:
	.loc 1 960 0 discriminator 1
	b	.L87
.L86:
	.loc 1 962 0
	bl	SEG7_Init
	.loc 1 963 0
	bl	switch_init
	.loc 1 964 0
	bl	LED_Init
	.loc 1 965 0
	bl	BTN_Init
	.loc 1 966 0
	mov	r3, #0
	str	r3, [r7, #4]
.L93:
	.loc 1 969 0
	bl	BTN_Get
	str	r0, [r7, #0]
	.loc 1 971 0
	ldr	r3, [r7, #0]
	cmp	r3, #1
	beq	.L88
	.loc 1 973 0
	ldr	r2, [r7, #12]
	ldr	r3, [r7, #8]
	adds	r3, r2, r3
	str	r3, [r7, #12]
	.loc 1 974 0
	ldr	r3, [r7, #12]
	cmp	r3, #4
	bne	.L89
	.loc 1 974 0 is_stmt 0 discriminator 1
	mov	r3, #-1
	str	r3, [r7, #8]
	mov	r3, #3
	str	r3, [r7, #12]
	b	.L90
.L89:
	.loc 1 975 0 is_stmt 1
	ldr	r3, [r7, #12]
	cmp	r3, #0
	bge	.L90
	.loc 1 975 0 is_stmt 0 discriminator 1
	mov	r3, #1
	str	r3, [r7, #8]
	mov	r3, #0
	str	r3, [r7, #12]
.L90:
	.loc 1 977 0 is_stmt 1
	ldr	r3, [r7, #4]
	cmp	r3, #0
	bne	.L91
	.loc 1 978 0
	ldr	r0, [r7, #12]
	bl	asmLED_ON
	.loc 1 979 0
	mov	r0, #50
	bl	MyasmDelay
	.loc 1 980 0
	ldr	r0, [r7, #12]
	bl	asmLED_OFF
	.loc 1 981 0
	mov	r0, #100
	bl	MyasmDelay
	.loc 1 982 0
	mov	r3, #1
	str	r3, [r7, #4]
	.loc 1 999 0
	b	.L93
.L91:
	.loc 1 985 0
	ldr	r3, [r7, #12]
	mov	r0, r3
	bl	LED_On
	.loc 1 986 0
	mov	r0, #50
	bl	Delay
	.loc 1 987 0
	ldr	r3, [r7, #12]
	mov	r0, r3
	bl	LED_Off
	.loc 1 988 0
	mov	r0, #100
	bl	Delay
	.loc 1 989 0
	mov	r3, #0
	str	r3, [r7, #4]
	.loc 1 999 0
	b	.L93
.L88:
	.loc 1 995 0
	mov	r0, #15
	bl	LED_Out
	.loc 1 996 0
	mov	r0, #10
	bl	Delay
	.loc 1 999 0
	b	.L93
	.cfi_endproc
.LFE15:
	.size	main, .-main
.Letext0:
	.file 2 "c:/yagarto/lib/gcc/../../arm-none-eabi/sys-include/stdint.h"